
./vfs/swk.elf:     формат файла elf64-littleaarch64


Дизасемблювання розділу .text:

ffffffff80000000 <memcpy>:
ffffffff80000000:	d10103ff 	sub	sp, sp, #0x40
ffffffff80000004:	f9000fe0 	str	x0, [sp, #24]
ffffffff80000008:	f9000be1 	str	x1, [sp, #16]
ffffffff8000000c:	f90007e2 	str	x2, [sp, #8]
ffffffff80000010:	f9400fe0 	ldr	x0, [sp, #24]
ffffffff80000014:	f9001be0 	str	x0, [sp, #48]
ffffffff80000018:	f9400be0 	ldr	x0, [sp, #16]
ffffffff8000001c:	f90017e0 	str	x0, [sp, #40]
ffffffff80000020:	f9001fff 	str	xzr, [sp, #56]
ffffffff80000024:	1400000c 	b	ffffffff80000054 <memcpy+0x54>
ffffffff80000028:	f94017e1 	ldr	x1, [sp, #40]
ffffffff8000002c:	f9401fe0 	ldr	x0, [sp, #56]
ffffffff80000030:	8b000021 	add	x1, x1, x0
ffffffff80000034:	f9401be2 	ldr	x2, [sp, #48]
ffffffff80000038:	f9401fe0 	ldr	x0, [sp, #56]
ffffffff8000003c:	8b000040 	add	x0, x2, x0
ffffffff80000040:	39400021 	ldrb	w1, [x1]
ffffffff80000044:	39000001 	strb	w1, [x0]
ffffffff80000048:	f9401fe0 	ldr	x0, [sp, #56]
ffffffff8000004c:	91000400 	add	x0, x0, #0x1
ffffffff80000050:	f9001fe0 	str	x0, [sp, #56]
ffffffff80000054:	f9401fe1 	ldr	x1, [sp, #56]
ffffffff80000058:	f94007e0 	ldr	x0, [sp, #8]
ffffffff8000005c:	eb00003f 	cmp	x1, x0
ffffffff80000060:	54fffe43 	b.cc	ffffffff80000028 <memcpy+0x28>  // b.lo, b.ul, b.last
ffffffff80000064:	f9400fe0 	ldr	x0, [sp, #24]
ffffffff80000068:	910103ff 	add	sp, sp, #0x40
ffffffff8000006c:	d65f03c0 	ret

ffffffff80000070 <memset>:
ffffffff80000070:	d100c3ff 	sub	sp, sp, #0x30
ffffffff80000074:	f9000fe0 	str	x0, [sp, #24]
ffffffff80000078:	b90017e1 	str	w1, [sp, #20]
ffffffff8000007c:	f90007e2 	str	x2, [sp, #8]
ffffffff80000080:	f9400fe0 	ldr	x0, [sp, #24]
ffffffff80000084:	f90013e0 	str	x0, [sp, #32]
ffffffff80000088:	f90017ff 	str	xzr, [sp, #40]
ffffffff8000008c:	1400000a 	b	ffffffff800000b4 <memset+0x44>
ffffffff80000090:	f94013e1 	ldr	x1, [sp, #32]
ffffffff80000094:	f94017e0 	ldr	x0, [sp, #40]
ffffffff80000098:	8b000020 	add	x0, x1, x0
ffffffff8000009c:	b94017e1 	ldr	w1, [sp, #20]
ffffffff800000a0:	12001c21 	and	w1, w1, #0xff
ffffffff800000a4:	39000001 	strb	w1, [x0]
ffffffff800000a8:	f94017e0 	ldr	x0, [sp, #40]
ffffffff800000ac:	91000400 	add	x0, x0, #0x1
ffffffff800000b0:	f90017e0 	str	x0, [sp, #40]
ffffffff800000b4:	f94017e1 	ldr	x1, [sp, #40]
ffffffff800000b8:	f94007e0 	ldr	x0, [sp, #8]
ffffffff800000bc:	eb00003f 	cmp	x1, x0
ffffffff800000c0:	54fffe83 	b.cc	ffffffff80000090 <memset+0x20>  // b.lo, b.ul, b.last
ffffffff800000c4:	f9400fe0 	ldr	x0, [sp, #24]
ffffffff800000c8:	9100c3ff 	add	sp, sp, #0x30
ffffffff800000cc:	d65f03c0 	ret

ffffffff800000d0 <memmove>:
ffffffff800000d0:	d10103ff 	sub	sp, sp, #0x40
ffffffff800000d4:	f9000fe0 	str	x0, [sp, #24]
ffffffff800000d8:	f9000be1 	str	x1, [sp, #16]
ffffffff800000dc:	f90007e2 	str	x2, [sp, #8]
ffffffff800000e0:	f9400fe0 	ldr	x0, [sp, #24]
ffffffff800000e4:	f90017e0 	str	x0, [sp, #40]
ffffffff800000e8:	f9400be0 	ldr	x0, [sp, #16]
ffffffff800000ec:	f90013e0 	str	x0, [sp, #32]
ffffffff800000f0:	f9400be1 	ldr	x1, [sp, #16]
ffffffff800000f4:	f9400fe0 	ldr	x0, [sp, #24]
ffffffff800000f8:	eb00003f 	cmp	x1, x0
ffffffff800000fc:	54000269 	b.ls	ffffffff80000148 <memmove+0x78>  // b.plast
ffffffff80000100:	f9001fff 	str	xzr, [sp, #56]
ffffffff80000104:	1400000c 	b	ffffffff80000134 <memmove+0x64>
ffffffff80000108:	f94013e1 	ldr	x1, [sp, #32]
ffffffff8000010c:	f9401fe0 	ldr	x0, [sp, #56]
ffffffff80000110:	8b000021 	add	x1, x1, x0
ffffffff80000114:	f94017e2 	ldr	x2, [sp, #40]
ffffffff80000118:	f9401fe0 	ldr	x0, [sp, #56]
ffffffff8000011c:	8b000040 	add	x0, x2, x0
ffffffff80000120:	39400021 	ldrb	w1, [x1]
ffffffff80000124:	39000001 	strb	w1, [x0]
ffffffff80000128:	f9401fe0 	ldr	x0, [sp, #56]
ffffffff8000012c:	91000400 	add	x0, x0, #0x1
ffffffff80000130:	f9001fe0 	str	x0, [sp, #56]
ffffffff80000134:	f9401fe1 	ldr	x1, [sp, #56]
ffffffff80000138:	f94007e0 	ldr	x0, [sp, #8]
ffffffff8000013c:	eb00003f 	cmp	x1, x0
ffffffff80000140:	54fffe43 	b.cc	ffffffff80000108 <memmove+0x38>  // b.lo, b.ul, b.last
ffffffff80000144:	14000018 	b	ffffffff800001a4 <memmove+0xd4>
ffffffff80000148:	f9400be1 	ldr	x1, [sp, #16]
ffffffff8000014c:	f9400fe0 	ldr	x0, [sp, #24]
ffffffff80000150:	eb00003f 	cmp	x1, x0
ffffffff80000154:	54000282 	b.cs	ffffffff800001a4 <memmove+0xd4>  // b.hs, b.nlast
ffffffff80000158:	f94007e0 	ldr	x0, [sp, #8]
ffffffff8000015c:	f9001be0 	str	x0, [sp, #48]
ffffffff80000160:	1400000e 	b	ffffffff80000198 <memmove+0xc8>
ffffffff80000164:	f9401be0 	ldr	x0, [sp, #48]
ffffffff80000168:	d1000400 	sub	x0, x0, #0x1
ffffffff8000016c:	f94013e1 	ldr	x1, [sp, #32]
ffffffff80000170:	8b000021 	add	x1, x1, x0
ffffffff80000174:	f9401be0 	ldr	x0, [sp, #48]
ffffffff80000178:	d1000400 	sub	x0, x0, #0x1
ffffffff8000017c:	f94017e2 	ldr	x2, [sp, #40]
ffffffff80000180:	8b000040 	add	x0, x2, x0
ffffffff80000184:	39400021 	ldrb	w1, [x1]
ffffffff80000188:	39000001 	strb	w1, [x0]
ffffffff8000018c:	f9401be0 	ldr	x0, [sp, #48]
ffffffff80000190:	d1000400 	sub	x0, x0, #0x1
ffffffff80000194:	f9001be0 	str	x0, [sp, #48]
ffffffff80000198:	f9401be0 	ldr	x0, [sp, #48]
ffffffff8000019c:	f100001f 	cmp	x0, #0x0
ffffffff800001a0:	54fffe21 	b.ne	ffffffff80000164 <memmove+0x94>  // b.any
ffffffff800001a4:	f9400fe0 	ldr	x0, [sp, #24]
ffffffff800001a8:	910103ff 	add	sp, sp, #0x40
ffffffff800001ac:	d65f03c0 	ret

ffffffff800001b0 <memcmp>:
ffffffff800001b0:	d10103ff 	sub	sp, sp, #0x40
ffffffff800001b4:	f9000fe0 	str	x0, [sp, #24]
ffffffff800001b8:	f9000be1 	str	x1, [sp, #16]
ffffffff800001bc:	f90007e2 	str	x2, [sp, #8]
ffffffff800001c0:	f9400fe0 	ldr	x0, [sp, #24]
ffffffff800001c4:	f9001be0 	str	x0, [sp, #48]
ffffffff800001c8:	f9400be0 	ldr	x0, [sp, #16]
ffffffff800001cc:	f90017e0 	str	x0, [sp, #40]
ffffffff800001d0:	f9001fff 	str	xzr, [sp, #56]
ffffffff800001d4:	1400001c 	b	ffffffff80000244 <memcmp+0x94>
ffffffff800001d8:	f9401be1 	ldr	x1, [sp, #48]
ffffffff800001dc:	f9401fe0 	ldr	x0, [sp, #56]
ffffffff800001e0:	8b000020 	add	x0, x1, x0
ffffffff800001e4:	39400001 	ldrb	w1, [x0]
ffffffff800001e8:	f94017e2 	ldr	x2, [sp, #40]
ffffffff800001ec:	f9401fe0 	ldr	x0, [sp, #56]
ffffffff800001f0:	8b000040 	add	x0, x2, x0
ffffffff800001f4:	39400000 	ldrb	w0, [x0]
ffffffff800001f8:	6b00003f 	cmp	w1, w0
ffffffff800001fc:	540001e0 	b.eq	ffffffff80000238 <memcmp+0x88>  // b.none
ffffffff80000200:	f9401be1 	ldr	x1, [sp, #48]
ffffffff80000204:	f9401fe0 	ldr	x0, [sp, #56]
ffffffff80000208:	8b000020 	add	x0, x1, x0
ffffffff8000020c:	39400001 	ldrb	w1, [x0]
ffffffff80000210:	f94017e2 	ldr	x2, [sp, #40]
ffffffff80000214:	f9401fe0 	ldr	x0, [sp, #56]
ffffffff80000218:	8b000040 	add	x0, x2, x0
ffffffff8000021c:	39400000 	ldrb	w0, [x0]
ffffffff80000220:	6b00003f 	cmp	w1, w0
ffffffff80000224:	54000062 	b.cs	ffffffff80000230 <memcmp+0x80>  // b.hs, b.nlast
ffffffff80000228:	12800000 	mov	w0, #0xffffffff            	// #-1
ffffffff8000022c:	1400000b 	b	ffffffff80000258 <memcmp+0xa8>
ffffffff80000230:	52800020 	mov	w0, #0x1                   	// #1
ffffffff80000234:	14000009 	b	ffffffff80000258 <memcmp+0xa8>
ffffffff80000238:	f9401fe0 	ldr	x0, [sp, #56]
ffffffff8000023c:	91000400 	add	x0, x0, #0x1
ffffffff80000240:	f9001fe0 	str	x0, [sp, #56]
ffffffff80000244:	f9401fe1 	ldr	x1, [sp, #56]
ffffffff80000248:	f94007e0 	ldr	x0, [sp, #8]
ffffffff8000024c:	eb00003f 	cmp	x1, x0
ffffffff80000250:	54fffc43 	b.cc	ffffffff800001d8 <memcmp+0x28>  // b.lo, b.ul, b.last
ffffffff80000254:	52800000 	mov	w0, #0x0                   	// #0
ffffffff80000258:	910103ff 	add	sp, sp, #0x40
ffffffff8000025c:	d65f03c0 	ret

ffffffff80000260 <flanterm_fb_simple_init>:
ffffffff80000260:	d10283ff 	sub	sp, sp, #0xa0
ffffffff80000264:	a9067bfd 	stp	x29, x30, [sp, #96]
ffffffff80000268:	910183fd 	add	x29, sp, #0x60
ffffffff8000026c:	f90047e0 	str	x0, [sp, #136]
ffffffff80000270:	f90043e1 	str	x1, [sp, #128]
ffffffff80000274:	f9003fe2 	str	x2, [sp, #120]
ffffffff80000278:	f9003be3 	str	x3, [sp, #112]
ffffffff8000027c:	d2800020 	mov	x0, #0x1                   	// #1
ffffffff80000280:	f9004fe0 	str	x0, [sp, #152]
ffffffff80000284:	d2800020 	mov	x0, #0x1                   	// #1
ffffffff80000288:	f9004be0 	str	x0, [sp, #144]
ffffffff8000028c:	f94043e0 	ldr	x0, [sp, #128]
ffffffff80000290:	f127fc1f 	cmp	x0, #0x9ff
ffffffff80000294:	54000109 	b.ls	ffffffff800002b4 <flanterm_fb_simple_init+0x54>  // b.plast
ffffffff80000298:	f9403fe0 	ldr	x0, [sp, #120]
ffffffff8000029c:	f1167c1f 	cmp	x0, #0x59f
ffffffff800002a0:	540000a9 	b.ls	ffffffff800002b4 <flanterm_fb_simple_init+0x54>  // b.plast
ffffffff800002a4:	d2800040 	mov	x0, #0x2                   	// #2
ffffffff800002a8:	f9004fe0 	str	x0, [sp, #152]
ffffffff800002ac:	d2800040 	mov	x0, #0x2                   	// #2
ffffffff800002b0:	f9004be0 	str	x0, [sp, #144]
ffffffff800002b4:	f94043e1 	ldr	x1, [sp, #128]
ffffffff800002b8:	d2827fe0 	mov	x0, #0x13ff                	// #5119
ffffffff800002bc:	eb00003f 	cmp	x1, x0
ffffffff800002c0:	54000109 	b.ls	ffffffff800002e0 <flanterm_fb_simple_init+0x80>  // b.plast
ffffffff800002c4:	f9403fe0 	ldr	x0, [sp, #120]
ffffffff800002c8:	f12cfc1f 	cmp	x0, #0xb3f
ffffffff800002cc:	540000a9 	b.ls	ffffffff800002e0 <flanterm_fb_simple_init+0x80>  // b.plast
ffffffff800002d0:	d2800080 	mov	x0, #0x4                   	// #4
ffffffff800002d4:	f9004fe0 	str	x0, [sp, #152]
ffffffff800002d8:	d2800080 	mov	x0, #0x4                   	// #4
ffffffff800002dc:	f9004be0 	str	x0, [sp, #144]
ffffffff800002e0:	f9002fff 	str	xzr, [sp, #88]
ffffffff800002e4:	f9404be0 	ldr	x0, [sp, #144]
ffffffff800002e8:	f9002be0 	str	x0, [sp, #80]
ffffffff800002ec:	f9404fe0 	ldr	x0, [sp, #152]
ffffffff800002f0:	f90027e0 	str	x0, [sp, #72]
ffffffff800002f4:	d2800020 	mov	x0, #0x1                   	// #1
ffffffff800002f8:	f90023e0 	str	x0, [sp, #64]
ffffffff800002fc:	f9001fff 	str	xzr, [sp, #56]
ffffffff80000300:	f9001bff 	str	xzr, [sp, #48]
ffffffff80000304:	f90017ff 	str	xzr, [sp, #40]
ffffffff80000308:	f90013ff 	str	xzr, [sp, #32]
ffffffff8000030c:	f9000fff 	str	xzr, [sp, #24]
ffffffff80000310:	f9000bff 	str	xzr, [sp, #16]
ffffffff80000314:	f90007ff 	str	xzr, [sp, #8]
ffffffff80000318:	f90003ff 	str	xzr, [sp]
ffffffff8000031c:	d2800007 	mov	x7, #0x0                   	// #0
ffffffff80000320:	d2800006 	mov	x6, #0x0                   	// #0
ffffffff80000324:	f9403be5 	ldr	x5, [sp, #112]
ffffffff80000328:	f9403fe4 	ldr	x4, [sp, #120]
ffffffff8000032c:	f94043e3 	ldr	x3, [sp, #128]
ffffffff80000330:	f94047e2 	ldr	x2, [sp, #136]
ffffffff80000334:	d2800001 	mov	x1, #0x0                   	// #0
ffffffff80000338:	d2800000 	mov	x0, #0x0                   	// #0
ffffffff8000033c:	940018ac 	bl	ffffffff800065ec <flanterm_fb_init>
ffffffff80000340:	a9467bfd 	ldp	x29, x30, [sp, #96]
ffffffff80000344:	910283ff 	add	sp, sp, #0xa0
ffffffff80000348:	d65f03c0 	ret

ffffffff8000034c <strlen>:
ffffffff8000034c:	d10083ff 	sub	sp, sp, #0x20
ffffffff80000350:	f90007e0 	str	x0, [sp, #8]
ffffffff80000354:	f9000fff 	str	xzr, [sp, #24]
ffffffff80000358:	14000004 	b	ffffffff80000368 <strlen+0x1c>
ffffffff8000035c:	f9400fe0 	ldr	x0, [sp, #24]
ffffffff80000360:	91000400 	add	x0, x0, #0x1
ffffffff80000364:	f9000fe0 	str	x0, [sp, #24]
ffffffff80000368:	f9400fe0 	ldr	x0, [sp, #24]
ffffffff8000036c:	f94007e1 	ldr	x1, [sp, #8]
ffffffff80000370:	8b000020 	add	x0, x1, x0
ffffffff80000374:	39400000 	ldrb	w0, [x0]
ffffffff80000378:	7100001f 	cmp	w0, #0x0
ffffffff8000037c:	54ffff01 	b.ne	ffffffff8000035c <strlen+0x10>  // b.any
ffffffff80000380:	f9400fe0 	ldr	x0, [sp, #24]
ffffffff80000384:	910083ff 	add	sp, sp, #0x20
ffffffff80000388:	d65f03c0 	ret

ffffffff8000038c <get_memmap_type>:
ffffffff8000038c:	d10043ff 	sub	sp, sp, #0x10
ffffffff80000390:	f90007e0 	str	x0, [sp, #8]
ffffffff80000394:	f94007e0 	ldr	x0, [sp, #8]
ffffffff80000398:	f1001c1f 	cmp	x0, #0x7
ffffffff8000039c:	540007c0 	b.eq	ffffffff80000494 <get_memmap_type+0x108>  // b.none
ffffffff800003a0:	f94007e0 	ldr	x0, [sp, #8]
ffffffff800003a4:	f1001c1f 	cmp	x0, #0x7
ffffffff800003a8:	540007c8 	b.hi	ffffffff800004a0 <get_memmap_type+0x114>  // b.pmore
ffffffff800003ac:	f94007e0 	ldr	x0, [sp, #8]
ffffffff800003b0:	f100181f 	cmp	x0, #0x6
ffffffff800003b4:	540006a0 	b.eq	ffffffff80000488 <get_memmap_type+0xfc>  // b.none
ffffffff800003b8:	f94007e0 	ldr	x0, [sp, #8]
ffffffff800003bc:	f100181f 	cmp	x0, #0x6
ffffffff800003c0:	54000708 	b.hi	ffffffff800004a0 <get_memmap_type+0x114>  // b.pmore
ffffffff800003c4:	f94007e0 	ldr	x0, [sp, #8]
ffffffff800003c8:	f100141f 	cmp	x0, #0x5
ffffffff800003cc:	54000580 	b.eq	ffffffff8000047c <get_memmap_type+0xf0>  // b.none
ffffffff800003d0:	f94007e0 	ldr	x0, [sp, #8]
ffffffff800003d4:	f100141f 	cmp	x0, #0x5
ffffffff800003d8:	54000648 	b.hi	ffffffff800004a0 <get_memmap_type+0x114>  // b.pmore
ffffffff800003dc:	f94007e0 	ldr	x0, [sp, #8]
ffffffff800003e0:	f100101f 	cmp	x0, #0x4
ffffffff800003e4:	54000460 	b.eq	ffffffff80000470 <get_memmap_type+0xe4>  // b.none
ffffffff800003e8:	f94007e0 	ldr	x0, [sp, #8]
ffffffff800003ec:	f100101f 	cmp	x0, #0x4
ffffffff800003f0:	54000588 	b.hi	ffffffff800004a0 <get_memmap_type+0x114>  // b.pmore
ffffffff800003f4:	f94007e0 	ldr	x0, [sp, #8]
ffffffff800003f8:	f1000c1f 	cmp	x0, #0x3
ffffffff800003fc:	54000340 	b.eq	ffffffff80000464 <get_memmap_type+0xd8>  // b.none
ffffffff80000400:	f94007e0 	ldr	x0, [sp, #8]
ffffffff80000404:	f1000c1f 	cmp	x0, #0x3
ffffffff80000408:	540004c8 	b.hi	ffffffff800004a0 <get_memmap_type+0x114>  // b.pmore
ffffffff8000040c:	f94007e0 	ldr	x0, [sp, #8]
ffffffff80000410:	f100081f 	cmp	x0, #0x2
ffffffff80000414:	54000220 	b.eq	ffffffff80000458 <get_memmap_type+0xcc>  // b.none
ffffffff80000418:	f94007e0 	ldr	x0, [sp, #8]
ffffffff8000041c:	f100081f 	cmp	x0, #0x2
ffffffff80000420:	54000408 	b.hi	ffffffff800004a0 <get_memmap_type+0x114>  // b.pmore
ffffffff80000424:	f94007e0 	ldr	x0, [sp, #8]
ffffffff80000428:	f100001f 	cmp	x0, #0x0
ffffffff8000042c:	540000a0 	b.eq	ffffffff80000440 <get_memmap_type+0xb4>  // b.none
ffffffff80000430:	f94007e0 	ldr	x0, [sp, #8]
ffffffff80000434:	f100041f 	cmp	x0, #0x1
ffffffff80000438:	540000a0 	b.eq	ffffffff8000044c <get_memmap_type+0xc0>  // b.none
ffffffff8000043c:	14000019 	b	ffffffff800004a0 <get_memmap_type+0x114>
ffffffff80000440:	f00000a0 	adrp	x0, ffffffff80017000 <_exc_lower_32_serror+0xf080>
ffffffff80000444:	913e2000 	add	x0, x0, #0xf88
ffffffff80000448:	14000018 	b	ffffffff800004a8 <get_memmap_type+0x11c>
ffffffff8000044c:	f00000a0 	adrp	x0, ffffffff80017000 <_exc_lower_32_serror+0xf080>
ffffffff80000450:	913e4000 	add	x0, x0, #0xf90
ffffffff80000454:	14000015 	b	ffffffff800004a8 <get_memmap_type+0x11c>
ffffffff80000458:	f00000a0 	adrp	x0, ffffffff80017000 <_exc_lower_32_serror+0xf080>
ffffffff8000045c:	913e8000 	add	x0, x0, #0xfa0
ffffffff80000460:	14000012 	b	ffffffff800004a8 <get_memmap_type+0x11c>
ffffffff80000464:	f00000a0 	adrp	x0, ffffffff80017000 <_exc_lower_32_serror+0xf080>
ffffffff80000468:	913ee000 	add	x0, x0, #0xfb8
ffffffff8000046c:	1400000f 	b	ffffffff800004a8 <get_memmap_type+0x11c>
ffffffff80000470:	f00000a0 	adrp	x0, ffffffff80017000 <_exc_lower_32_serror+0xf080>
ffffffff80000474:	913f2000 	add	x0, x0, #0xfc8
ffffffff80000478:	1400000c 	b	ffffffff800004a8 <get_memmap_type+0x11c>
ffffffff8000047c:	f00000a0 	adrp	x0, ffffffff80017000 <_exc_lower_32_serror+0xf080>
ffffffff80000480:	913f6000 	add	x0, x0, #0xfd8
ffffffff80000484:	14000009 	b	ffffffff800004a8 <get_memmap_type+0x11c>
ffffffff80000488:	f00000a0 	adrp	x0, ffffffff80017000 <_exc_lower_32_serror+0xf080>
ffffffff8000048c:	913fc000 	add	x0, x0, #0xff0
ffffffff80000490:	14000006 	b	ffffffff800004a8 <get_memmap_type+0x11c>
ffffffff80000494:	900000c0 	adrp	x0, ffffffff80018000 <_exc_lower_32_serror+0x10080>
ffffffff80000498:	91002000 	add	x0, x0, #0x8
ffffffff8000049c:	14000003 	b	ffffffff800004a8 <get_memmap_type+0x11c>
ffffffff800004a0:	900000c0 	adrp	x0, ffffffff80018000 <_exc_lower_32_serror+0x10080>
ffffffff800004a4:	91006000 	add	x0, x0, #0x18
ffffffff800004a8:	910043ff 	add	sp, sp, #0x10
ffffffff800004ac:	d65f03c0 	ret

ffffffff800004b0 <int_to_hex>:
ffffffff800004b0:	d100c3ff 	sub	sp, sp, #0x30
ffffffff800004b4:	b9000fe0 	str	w0, [sp, #12]
ffffffff800004b8:	f90003e1 	str	x1, [sp]
ffffffff800004bc:	900000c0 	adrp	x0, ffffffff80018000 <_exc_lower_32_serror+0x10080>
ffffffff800004c0:	91008000 	add	x0, x0, #0x20
ffffffff800004c4:	910043e2 	add	x2, sp, #0x10
ffffffff800004c8:	aa0003e3 	mov	x3, x0
ffffffff800004cc:	a9400460 	ldp	x0, x1, [x3]
ffffffff800004d0:	a9000440 	stp	x0, x1, [x2]
ffffffff800004d4:	39404060 	ldrb	w0, [x3, #16]
ffffffff800004d8:	39004040 	strb	w0, [x2, #16]
ffffffff800004dc:	b9002fff 	str	wzr, [sp, #44]
ffffffff800004e0:	b9400fe0 	ldr	w0, [sp, #12]
ffffffff800004e4:	12000c02 	and	w2, w0, #0xf
ffffffff800004e8:	b9402fe0 	ldr	w0, [sp, #44]
ffffffff800004ec:	11000401 	add	w1, w0, #0x1
ffffffff800004f0:	b9002fe1 	str	w1, [sp, #44]
ffffffff800004f4:	93407c00 	sxtw	x0, w0
ffffffff800004f8:	f94003e1 	ldr	x1, [sp]
ffffffff800004fc:	8b000020 	add	x0, x1, x0
ffffffff80000500:	2a0203e1 	mov	w1, w2
ffffffff80000504:	910043e2 	add	x2, sp, #0x10
ffffffff80000508:	38616841 	ldrb	w1, [x2, x1]
ffffffff8000050c:	39000001 	strb	w1, [x0]
ffffffff80000510:	b9400fe0 	ldr	w0, [sp, #12]
ffffffff80000514:	53047c00 	lsr	w0, w0, #4
ffffffff80000518:	b9000fe0 	str	w0, [sp, #12]
ffffffff8000051c:	b9400fe0 	ldr	w0, [sp, #12]
ffffffff80000520:	7100001f 	cmp	w0, #0x0
ffffffff80000524:	54fffde1 	b.ne	ffffffff800004e0 <int_to_hex+0x30>  // b.any
ffffffff80000528:	b9802fe0 	ldrsw	x0, [sp, #44]
ffffffff8000052c:	f94003e1 	ldr	x1, [sp]
ffffffff80000530:	8b000020 	add	x0, x1, x0
ffffffff80000534:	3900001f 	strb	wzr, [x0]
ffffffff80000538:	b9002bff 	str	wzr, [sp, #40]
ffffffff8000053c:	1400001e 	b	ffffffff800005b4 <int_to_hex+0x104>
ffffffff80000540:	b9802be0 	ldrsw	x0, [sp, #40]
ffffffff80000544:	f94003e1 	ldr	x1, [sp]
ffffffff80000548:	8b000020 	add	x0, x1, x0
ffffffff8000054c:	39400000 	ldrb	w0, [x0]
ffffffff80000550:	39009fe0 	strb	w0, [sp, #39]
ffffffff80000554:	b9402fe1 	ldr	w1, [sp, #44]
ffffffff80000558:	b9402be0 	ldr	w0, [sp, #40]
ffffffff8000055c:	4b000020 	sub	w0, w1, w0
ffffffff80000560:	93407c00 	sxtw	x0, w0
ffffffff80000564:	d1000400 	sub	x0, x0, #0x1
ffffffff80000568:	f94003e1 	ldr	x1, [sp]
ffffffff8000056c:	8b000021 	add	x1, x1, x0
ffffffff80000570:	b9802be0 	ldrsw	x0, [sp, #40]
ffffffff80000574:	f94003e2 	ldr	x2, [sp]
ffffffff80000578:	8b000040 	add	x0, x2, x0
ffffffff8000057c:	39400021 	ldrb	w1, [x1]
ffffffff80000580:	39000001 	strb	w1, [x0]
ffffffff80000584:	b9402fe1 	ldr	w1, [sp, #44]
ffffffff80000588:	b9402be0 	ldr	w0, [sp, #40]
ffffffff8000058c:	4b000020 	sub	w0, w1, w0
ffffffff80000590:	93407c00 	sxtw	x0, w0
ffffffff80000594:	d1000400 	sub	x0, x0, #0x1
ffffffff80000598:	f94003e1 	ldr	x1, [sp]
ffffffff8000059c:	8b000020 	add	x0, x1, x0
ffffffff800005a0:	39409fe1 	ldrb	w1, [sp, #39]
ffffffff800005a4:	39000001 	strb	w1, [x0]
ffffffff800005a8:	b9402be0 	ldr	w0, [sp, #40]
ffffffff800005ac:	11000400 	add	w0, w0, #0x1
ffffffff800005b0:	b9002be0 	str	w0, [sp, #40]
ffffffff800005b4:	b9402fe0 	ldr	w0, [sp, #44]
ffffffff800005b8:	531f7c01 	lsr	w1, w0, #31
ffffffff800005bc:	0b000020 	add	w0, w1, w0
ffffffff800005c0:	13017c00 	asr	w0, w0, #1
ffffffff800005c4:	2a0003e1 	mov	w1, w0
ffffffff800005c8:	b9402be0 	ldr	w0, [sp, #40]
ffffffff800005cc:	6b01001f 	cmp	w0, w1
ffffffff800005d0:	54fffb8b 	b.lt	ffffffff80000540 <int_to_hex+0x90>  // b.tstop
ffffffff800005d4:	d503201f 	nop
ffffffff800005d8:	d503201f 	nop
ffffffff800005dc:	9100c3ff 	add	sp, sp, #0x30
ffffffff800005e0:	d65f03c0 	ret

ffffffff800005e4 <terminal_init>:
ffffffff800005e4:	a9be7bfd 	stp	x29, x30, [sp, #-32]!
ffffffff800005e8:	910003fd 	mov	x29, sp
ffffffff800005ec:	f9000fe0 	str	x0, [sp, #24]
ffffffff800005f0:	f9400fe0 	ldr	x0, [sp, #24]
ffffffff800005f4:	f9400004 	ldr	x4, [x0]
ffffffff800005f8:	f9400fe0 	ldr	x0, [sp, #24]
ffffffff800005fc:	f9400401 	ldr	x1, [x0, #8]
ffffffff80000600:	f9400fe0 	ldr	x0, [sp, #24]
ffffffff80000604:	f9400802 	ldr	x2, [x0, #16]
ffffffff80000608:	f9400fe0 	ldr	x0, [sp, #24]
ffffffff8000060c:	f9400c00 	ldr	x0, [x0, #24]
ffffffff80000610:	aa0003e3 	mov	x3, x0
ffffffff80000614:	aa0403e0 	mov	x0, x4
ffffffff80000618:	97ffff12 	bl	ffffffff80000260 <flanterm_fb_simple_init>
ffffffff8000061c:	aa0003e1 	mov	x1, x0
ffffffff80000620:	d0000140 	adrp	x0, ffffffff8002a000 <builtin_font+0x109c0>
ffffffff80000624:	911d6000 	add	x0, x0, #0x758
ffffffff80000628:	f9000001 	str	x1, [x0]
ffffffff8000062c:	d0000140 	adrp	x0, ffffffff8002a000 <builtin_font+0x109c0>
ffffffff80000630:	911d6000 	add	x0, x0, #0x758
ffffffff80000634:	f9400003 	ldr	x3, [x0]
ffffffff80000638:	d28002a2 	mov	x2, #0x15                  	// #21
ffffffff8000063c:	900000c0 	adrp	x0, ffffffff80018000 <_exc_lower_32_serror+0x10080>
ffffffff80000640:	9100e001 	add	x1, x0, #0x38
ffffffff80000644:	aa0303e0 	mov	x0, x3
ffffffff80000648:	940002a1 	bl	ffffffff800010cc <flanterm_write>
ffffffff8000064c:	52800000 	mov	w0, #0x0                   	// #0
ffffffff80000650:	a8c27bfd 	ldp	x29, x30, [sp], #32
ffffffff80000654:	d65f03c0 	ret

ffffffff80000658 <print>:
ffffffff80000658:	a9be7bfd 	stp	x29, x30, [sp, #-32]!
ffffffff8000065c:	910003fd 	mov	x29, sp
ffffffff80000660:	f9000fe0 	str	x0, [sp, #24]
ffffffff80000664:	f9000be1 	str	x1, [sp, #16]
ffffffff80000668:	d0000140 	adrp	x0, ffffffff8002a000 <builtin_font+0x109c0>
ffffffff8000066c:	911d6000 	add	x0, x0, #0x758
ffffffff80000670:	f9400000 	ldr	x0, [x0]
ffffffff80000674:	f9400be2 	ldr	x2, [sp, #16]
ffffffff80000678:	f9400fe1 	ldr	x1, [sp, #24]
ffffffff8000067c:	94000294 	bl	ffffffff800010cc <flanterm_write>
ffffffff80000680:	d503201f 	nop
ffffffff80000684:	a8c27bfd 	ldp	x29, x30, [sp], #32
ffffffff80000688:	d65f03c0 	ret

ffffffff8000068c <tprintf>:
ffffffff8000068c:	a9aa7bfd 	stp	x29, x30, [sp, #-352]!
ffffffff80000690:	910003fd 	mov	x29, sp
ffffffff80000694:	f9000fe0 	str	x0, [sp, #24]
ffffffff80000698:	f90097e1 	str	x1, [sp, #296]
ffffffff8000069c:	f9009be2 	str	x2, [sp, #304]
ffffffff800006a0:	f9009fe3 	str	x3, [sp, #312]
ffffffff800006a4:	f900a3e4 	str	x4, [sp, #320]
ffffffff800006a8:	f900a7e5 	str	x5, [sp, #328]
ffffffff800006ac:	f900abe6 	str	x6, [sp, #336]
ffffffff800006b0:	f900afe7 	str	x7, [sp, #344]
ffffffff800006b4:	3d802be0 	str	q0, [sp, #160]
ffffffff800006b8:	3d802fe1 	str	q1, [sp, #176]
ffffffff800006bc:	3d8033e2 	str	q2, [sp, #192]
ffffffff800006c0:	3d8037e3 	str	q3, [sp, #208]
ffffffff800006c4:	3d803be4 	str	q4, [sp, #224]
ffffffff800006c8:	3d803fe5 	str	q5, [sp, #240]
ffffffff800006cc:	3d8043e6 	str	q6, [sp, #256]
ffffffff800006d0:	3d8047e7 	str	q7, [sp, #272]
ffffffff800006d4:	910583e0 	add	x0, sp, #0x160
ffffffff800006d8:	f90023e0 	str	x0, [sp, #64]
ffffffff800006dc:	910583e0 	add	x0, sp, #0x160
ffffffff800006e0:	f90027e0 	str	x0, [sp, #72]
ffffffff800006e4:	910483e0 	add	x0, sp, #0x120
ffffffff800006e8:	f9002be0 	str	x0, [sp, #80]
ffffffff800006ec:	128006e0 	mov	w0, #0xffffffc8            	// #-56
ffffffff800006f0:	b9005be0 	str	w0, [sp, #88]
ffffffff800006f4:	12800fe0 	mov	w0, #0xffffff80            	// #-128
ffffffff800006f8:	b9005fe0 	str	w0, [sp, #92]
ffffffff800006fc:	b9009fff 	str	wzr, [sp, #156]
ffffffff80000700:	140000ec 	b	ffffffff80000ab0 <tprintf+0x424>
ffffffff80000704:	12b00001 	mov	w1, #0x7fffffff            	// #2147483647
ffffffff80000708:	b9409fe0 	ldr	w0, [sp, #156]
ffffffff8000070c:	4b000020 	sub	w0, w1, w0
ffffffff80000710:	93407c00 	sxtw	x0, w0
ffffffff80000714:	f90047e0 	str	x0, [sp, #136]
ffffffff80000718:	f9400fe0 	ldr	x0, [sp, #24]
ffffffff8000071c:	39400000 	ldrb	w0, [x0]
ffffffff80000720:	7100941f 	cmp	w0, #0x25
ffffffff80000724:	540000c1 	b.ne	ffffffff8000073c <tprintf+0xb0>  // b.any
ffffffff80000728:	f9400fe0 	ldr	x0, [sp, #24]
ffffffff8000072c:	91000400 	add	x0, x0, #0x1
ffffffff80000730:	39400000 	ldrb	w0, [x0]
ffffffff80000734:	7100941f 	cmp	w0, #0x25
ffffffff80000738:	54000621 	b.ne	ffffffff800007fc <tprintf+0x170>  // b.any
ffffffff8000073c:	f9400fe0 	ldr	x0, [sp, #24]
ffffffff80000740:	39400000 	ldrb	w0, [x0]
ffffffff80000744:	7100941f 	cmp	w0, #0x25
ffffffff80000748:	54000081 	b.ne	ffffffff80000758 <tprintf+0xcc>  // b.any
ffffffff8000074c:	f9400fe0 	ldr	x0, [sp, #24]
ffffffff80000750:	91000400 	add	x0, x0, #0x1
ffffffff80000754:	f9000fe0 	str	x0, [sp, #24]
ffffffff80000758:	d2800020 	mov	x0, #0x1                   	// #1
ffffffff8000075c:	f9004be0 	str	x0, [sp, #144]
ffffffff80000760:	14000004 	b	ffffffff80000770 <tprintf+0xe4>
ffffffff80000764:	f9404be0 	ldr	x0, [sp, #144]
ffffffff80000768:	91000400 	add	x0, x0, #0x1
ffffffff8000076c:	f9004be0 	str	x0, [sp, #144]
ffffffff80000770:	f9400fe1 	ldr	x1, [sp, #24]
ffffffff80000774:	f9404be0 	ldr	x0, [sp, #144]
ffffffff80000778:	8b000020 	add	x0, x1, x0
ffffffff8000077c:	39400000 	ldrb	w0, [x0]
ffffffff80000780:	7100001f 	cmp	w0, #0x0
ffffffff80000784:	540000e0 	b.eq	ffffffff800007a0 <tprintf+0x114>  // b.none
ffffffff80000788:	f9400fe1 	ldr	x1, [sp, #24]
ffffffff8000078c:	f9404be0 	ldr	x0, [sp, #144]
ffffffff80000790:	8b000020 	add	x0, x1, x0
ffffffff80000794:	39400000 	ldrb	w0, [x0]
ffffffff80000798:	7100941f 	cmp	w0, #0x25
ffffffff8000079c:	54fffe41 	b.ne	ffffffff80000764 <tprintf+0xd8>  // b.any
ffffffff800007a0:	f94047e1 	ldr	x1, [sp, #136]
ffffffff800007a4:	f9404be0 	ldr	x0, [sp, #144]
ffffffff800007a8:	eb00003f 	cmp	x1, x0
ffffffff800007ac:	54000062 	b.cs	ffffffff800007b8 <tprintf+0x12c>  // b.hs, b.nlast
ffffffff800007b0:	12800000 	mov	w0, #0xffffffff            	// #-1
ffffffff800007b4:	140000c4 	b	ffffffff80000ac4 <tprintf+0x438>
ffffffff800007b8:	f9404be1 	ldr	x1, [sp, #144]
ffffffff800007bc:	f9400fe0 	ldr	x0, [sp, #24]
ffffffff800007c0:	97ffffa6 	bl	ffffffff80000658 <print>
ffffffff800007c4:	7100001f 	cmp	w0, #0x0
ffffffff800007c8:	54000061 	b.ne	ffffffff800007d4 <tprintf+0x148>  // b.any
ffffffff800007cc:	12800000 	mov	w0, #0xffffffff            	// #-1
ffffffff800007d0:	140000bd 	b	ffffffff80000ac4 <tprintf+0x438>
ffffffff800007d4:	f9400fe1 	ldr	x1, [sp, #24]
ffffffff800007d8:	f9404be0 	ldr	x0, [sp, #144]
ffffffff800007dc:	8b000020 	add	x0, x1, x0
ffffffff800007e0:	f9000fe0 	str	x0, [sp, #24]
ffffffff800007e4:	f9404be0 	ldr	x0, [sp, #144]
ffffffff800007e8:	2a0003e1 	mov	w1, w0
ffffffff800007ec:	b9409fe0 	ldr	w0, [sp, #156]
ffffffff800007f0:	0b000020 	add	w0, w1, w0
ffffffff800007f4:	b9009fe0 	str	w0, [sp, #156]
ffffffff800007f8:	140000ae 	b	ffffffff80000ab0 <tprintf+0x424>
ffffffff800007fc:	f9400fe0 	ldr	x0, [sp, #24]
ffffffff80000800:	91000401 	add	x1, x0, #0x1
ffffffff80000804:	f9000fe1 	str	x1, [sp, #24]
ffffffff80000808:	f90043e0 	str	x0, [sp, #128]
ffffffff8000080c:	f9400fe0 	ldr	x0, [sp, #24]
ffffffff80000810:	39400000 	ldrb	w0, [x0]
ffffffff80000814:	71018c1f 	cmp	w0, #0x63
ffffffff80000818:	54000561 	b.ne	ffffffff800008c4 <tprintf+0x238>  // b.any
ffffffff8000081c:	f9400fe0 	ldr	x0, [sp, #24]
ffffffff80000820:	91000400 	add	x0, x0, #0x1
ffffffff80000824:	f9000fe0 	str	x0, [sp, #24]
ffffffff80000828:	b9405be1 	ldr	w1, [sp, #88]
ffffffff8000082c:	f94023e0 	ldr	x0, [sp, #64]
ffffffff80000830:	7100003f 	cmp	w1, #0x0
ffffffff80000834:	540000ab 	b.lt	ffffffff80000848 <tprintf+0x1bc>  // b.tstop
ffffffff80000838:	91002c01 	add	x1, x0, #0xb
ffffffff8000083c:	927df021 	and	x1, x1, #0xfffffffffffffff8
ffffffff80000840:	f90023e1 	str	x1, [sp, #64]
ffffffff80000844:	1400000d 	b	ffffffff80000878 <tprintf+0x1ec>
ffffffff80000848:	11002022 	add	w2, w1, #0x8
ffffffff8000084c:	b9005be2 	str	w2, [sp, #88]
ffffffff80000850:	b9405be2 	ldr	w2, [sp, #88]
ffffffff80000854:	7100005f 	cmp	w2, #0x0
ffffffff80000858:	540000ad 	b.le	ffffffff8000086c <tprintf+0x1e0>
ffffffff8000085c:	91002c01 	add	x1, x0, #0xb
ffffffff80000860:	927df021 	and	x1, x1, #0xfffffffffffffff8
ffffffff80000864:	f90023e1 	str	x1, [sp, #64]
ffffffff80000868:	14000004 	b	ffffffff80000878 <tprintf+0x1ec>
ffffffff8000086c:	f94027e2 	ldr	x2, [sp, #72]
ffffffff80000870:	93407c20 	sxtw	x0, w1
ffffffff80000874:	8b000040 	add	x0, x2, x0
ffffffff80000878:	b9400000 	ldr	w0, [x0]
ffffffff8000087c:	12001c00 	and	w0, w0, #0xff
ffffffff80000880:	3900ffe0 	strb	w0, [sp, #63]
ffffffff80000884:	f94047e0 	ldr	x0, [sp, #136]
ffffffff80000888:	f100001f 	cmp	x0, #0x0
ffffffff8000088c:	54000061 	b.ne	ffffffff80000898 <tprintf+0x20c>  // b.any
ffffffff80000890:	12800000 	mov	w0, #0xffffffff            	// #-1
ffffffff80000894:	1400008c 	b	ffffffff80000ac4 <tprintf+0x438>
ffffffff80000898:	9100ffe0 	add	x0, sp, #0x3f
ffffffff8000089c:	d2800021 	mov	x1, #0x1                   	// #1
ffffffff800008a0:	97ffff6e 	bl	ffffffff80000658 <print>
ffffffff800008a4:	7100001f 	cmp	w0, #0x0
ffffffff800008a8:	54000061 	b.ne	ffffffff800008b4 <tprintf+0x228>  // b.any
ffffffff800008ac:	12800000 	mov	w0, #0xffffffff            	// #-1
ffffffff800008b0:	14000085 	b	ffffffff80000ac4 <tprintf+0x438>
ffffffff800008b4:	b9409fe0 	ldr	w0, [sp, #156]
ffffffff800008b8:	11000400 	add	w0, w0, #0x1
ffffffff800008bc:	b9009fe0 	str	w0, [sp, #156]
ffffffff800008c0:	1400007c 	b	ffffffff80000ab0 <tprintf+0x424>
ffffffff800008c4:	f9400fe0 	ldr	x0, [sp, #24]
ffffffff800008c8:	39400000 	ldrb	w0, [x0]
ffffffff800008cc:	7101cc1f 	cmp	w0, #0x73
ffffffff800008d0:	54000601 	b.ne	ffffffff80000990 <tprintf+0x304>  // b.any
ffffffff800008d4:	f9400fe0 	ldr	x0, [sp, #24]
ffffffff800008d8:	91000400 	add	x0, x0, #0x1
ffffffff800008dc:	f9000fe0 	str	x0, [sp, #24]
ffffffff800008e0:	b9405be1 	ldr	w1, [sp, #88]
ffffffff800008e4:	f94023e0 	ldr	x0, [sp, #64]
ffffffff800008e8:	7100003f 	cmp	w1, #0x0
ffffffff800008ec:	540000ab 	b.lt	ffffffff80000900 <tprintf+0x274>  // b.tstop
ffffffff800008f0:	91003c01 	add	x1, x0, #0xf
ffffffff800008f4:	927df021 	and	x1, x1, #0xfffffffffffffff8
ffffffff800008f8:	f90023e1 	str	x1, [sp, #64]
ffffffff800008fc:	1400000d 	b	ffffffff80000930 <tprintf+0x2a4>
ffffffff80000900:	11002022 	add	w2, w1, #0x8
ffffffff80000904:	b9005be2 	str	w2, [sp, #88]
ffffffff80000908:	b9405be2 	ldr	w2, [sp, #88]
ffffffff8000090c:	7100005f 	cmp	w2, #0x0
ffffffff80000910:	540000ad 	b.le	ffffffff80000924 <tprintf+0x298>
ffffffff80000914:	91003c01 	add	x1, x0, #0xf
ffffffff80000918:	927df021 	and	x1, x1, #0xfffffffffffffff8
ffffffff8000091c:	f90023e1 	str	x1, [sp, #64]
ffffffff80000920:	14000004 	b	ffffffff80000930 <tprintf+0x2a4>
ffffffff80000924:	f94027e2 	ldr	x2, [sp, #72]
ffffffff80000928:	93407c20 	sxtw	x0, w1
ffffffff8000092c:	8b000040 	add	x0, x2, x0
ffffffff80000930:	f9400000 	ldr	x0, [x0]
ffffffff80000934:	f90037e0 	str	x0, [sp, #104]
ffffffff80000938:	f94037e0 	ldr	x0, [sp, #104]
ffffffff8000093c:	97fffe84 	bl	ffffffff8000034c <strlen>
ffffffff80000940:	f90033e0 	str	x0, [sp, #96]
ffffffff80000944:	f94047e1 	ldr	x1, [sp, #136]
ffffffff80000948:	f94033e0 	ldr	x0, [sp, #96]
ffffffff8000094c:	eb00003f 	cmp	x1, x0
ffffffff80000950:	54000062 	b.cs	ffffffff8000095c <tprintf+0x2d0>  // b.hs, b.nlast
ffffffff80000954:	12800000 	mov	w0, #0xffffffff            	// #-1
ffffffff80000958:	1400005b 	b	ffffffff80000ac4 <tprintf+0x438>
ffffffff8000095c:	f94033e1 	ldr	x1, [sp, #96]
ffffffff80000960:	f94037e0 	ldr	x0, [sp, #104]
ffffffff80000964:	97ffff3d 	bl	ffffffff80000658 <print>
ffffffff80000968:	7100001f 	cmp	w0, #0x0
ffffffff8000096c:	54000061 	b.ne	ffffffff80000978 <tprintf+0x2ec>  // b.any
ffffffff80000970:	12800000 	mov	w0, #0xffffffff            	// #-1
ffffffff80000974:	14000054 	b	ffffffff80000ac4 <tprintf+0x438>
ffffffff80000978:	f94033e0 	ldr	x0, [sp, #96]
ffffffff8000097c:	2a0003e1 	mov	w1, w0
ffffffff80000980:	b9409fe0 	ldr	w0, [sp, #156]
ffffffff80000984:	0b000020 	add	w0, w1, w0
ffffffff80000988:	b9009fe0 	str	w0, [sp, #156]
ffffffff8000098c:	14000049 	b	ffffffff80000ab0 <tprintf+0x424>
ffffffff80000990:	f9400fe0 	ldr	x0, [sp, #24]
ffffffff80000994:	39400000 	ldrb	w0, [x0]
ffffffff80000998:	7101e01f 	cmp	w0, #0x78
ffffffff8000099c:	54000541 	b.ne	ffffffff80000a44 <tprintf+0x3b8>  // b.any
ffffffff800009a0:	f9400fe0 	ldr	x0, [sp, #24]
ffffffff800009a4:	91000400 	add	x0, x0, #0x1
ffffffff800009a8:	f9000fe0 	str	x0, [sp, #24]
ffffffff800009ac:	b9405be1 	ldr	w1, [sp, #88]
ffffffff800009b0:	f94023e0 	ldr	x0, [sp, #64]
ffffffff800009b4:	7100003f 	cmp	w1, #0x0
ffffffff800009b8:	540000ab 	b.lt	ffffffff800009cc <tprintf+0x340>  // b.tstop
ffffffff800009bc:	91002c01 	add	x1, x0, #0xb
ffffffff800009c0:	927df021 	and	x1, x1, #0xfffffffffffffff8
ffffffff800009c4:	f90023e1 	str	x1, [sp, #64]
ffffffff800009c8:	1400000d 	b	ffffffff800009fc <tprintf+0x370>
ffffffff800009cc:	11002022 	add	w2, w1, #0x8
ffffffff800009d0:	b9005be2 	str	w2, [sp, #88]
ffffffff800009d4:	b9405be2 	ldr	w2, [sp, #88]
ffffffff800009d8:	7100005f 	cmp	w2, #0x0
ffffffff800009dc:	540000ad 	b.le	ffffffff800009f0 <tprintf+0x364>
ffffffff800009e0:	91002c01 	add	x1, x0, #0xb
ffffffff800009e4:	927df021 	and	x1, x1, #0xfffffffffffffff8
ffffffff800009e8:	f90023e1 	str	x1, [sp, #64]
ffffffff800009ec:	14000004 	b	ffffffff800009fc <tprintf+0x370>
ffffffff800009f0:	f94027e2 	ldr	x2, [sp, #72]
ffffffff800009f4:	93407c20 	sxtw	x0, w1
ffffffff800009f8:	8b000040 	add	x0, x2, x0
ffffffff800009fc:	b9400000 	ldr	w0, [x0]
ffffffff80000a00:	b90077e0 	str	w0, [sp, #116]
ffffffff80000a04:	9100a3e0 	add	x0, sp, #0x28
ffffffff80000a08:	aa0003e1 	mov	x1, x0
ffffffff80000a0c:	b94077e0 	ldr	w0, [sp, #116]
ffffffff80000a10:	97fffea8 	bl	ffffffff800004b0 <int_to_hex>
ffffffff80000a14:	9100a3e0 	add	x0, sp, #0x28
ffffffff80000a18:	97fffe4d 	bl	ffffffff8000034c <strlen>
ffffffff80000a1c:	aa0003e1 	mov	x1, x0
ffffffff80000a20:	9100a3e0 	add	x0, sp, #0x28
ffffffff80000a24:	97ffff0d 	bl	ffffffff80000658 <print>
ffffffff80000a28:	9100a3e0 	add	x0, sp, #0x28
ffffffff80000a2c:	97fffe48 	bl	ffffffff8000034c <strlen>
ffffffff80000a30:	2a0003e1 	mov	w1, w0
ffffffff80000a34:	b9409fe0 	ldr	w0, [sp, #156]
ffffffff80000a38:	0b000020 	add	w0, w1, w0
ffffffff80000a3c:	b9009fe0 	str	w0, [sp, #156]
ffffffff80000a40:	1400001c 	b	ffffffff80000ab0 <tprintf+0x424>
ffffffff80000a44:	f94043e0 	ldr	x0, [sp, #128]
ffffffff80000a48:	f9000fe0 	str	x0, [sp, #24]
ffffffff80000a4c:	f9400fe0 	ldr	x0, [sp, #24]
ffffffff80000a50:	97fffe3f 	bl	ffffffff8000034c <strlen>
ffffffff80000a54:	f9003fe0 	str	x0, [sp, #120]
ffffffff80000a58:	f94047e1 	ldr	x1, [sp, #136]
ffffffff80000a5c:	f9403fe0 	ldr	x0, [sp, #120]
ffffffff80000a60:	eb00003f 	cmp	x1, x0
ffffffff80000a64:	54000062 	b.cs	ffffffff80000a70 <tprintf+0x3e4>  // b.hs, b.nlast
ffffffff80000a68:	12800000 	mov	w0, #0xffffffff            	// #-1
ffffffff80000a6c:	14000016 	b	ffffffff80000ac4 <tprintf+0x438>
ffffffff80000a70:	f9403fe1 	ldr	x1, [sp, #120]
ffffffff80000a74:	f9400fe0 	ldr	x0, [sp, #24]
ffffffff80000a78:	97fffef8 	bl	ffffffff80000658 <print>
ffffffff80000a7c:	7100001f 	cmp	w0, #0x0
ffffffff80000a80:	54000061 	b.ne	ffffffff80000a8c <tprintf+0x400>  // b.any
ffffffff80000a84:	12800000 	mov	w0, #0xffffffff            	// #-1
ffffffff80000a88:	1400000f 	b	ffffffff80000ac4 <tprintf+0x438>
ffffffff80000a8c:	f9403fe0 	ldr	x0, [sp, #120]
ffffffff80000a90:	2a0003e1 	mov	w1, w0
ffffffff80000a94:	b9409fe0 	ldr	w0, [sp, #156]
ffffffff80000a98:	0b000020 	add	w0, w1, w0
ffffffff80000a9c:	b9009fe0 	str	w0, [sp, #156]
ffffffff80000aa0:	f9400fe1 	ldr	x1, [sp, #24]
ffffffff80000aa4:	f9403fe0 	ldr	x0, [sp, #120]
ffffffff80000aa8:	8b000020 	add	x0, x1, x0
ffffffff80000aac:	f9000fe0 	str	x0, [sp, #24]
ffffffff80000ab0:	f9400fe0 	ldr	x0, [sp, #24]
ffffffff80000ab4:	39400000 	ldrb	w0, [x0]
ffffffff80000ab8:	7100001f 	cmp	w0, #0x0
ffffffff80000abc:	54ffe241 	b.ne	ffffffff80000704 <tprintf+0x78>  // b.any
ffffffff80000ac0:	b9409fe0 	ldr	w0, [sp, #156]
ffffffff80000ac4:	a8d67bfd 	ldp	x29, x30, [sp], #352
ffffffff80000ac8:	d65f03c0 	ret

ffffffff80000acc <clear>:
ffffffff80000acc:	a9bf7bfd 	stp	x29, x30, [sp, #-16]!
ffffffff80000ad0:	910003fd 	mov	x29, sp
ffffffff80000ad4:	d0000140 	adrp	x0, ffffffff8002a000 <builtin_font+0x109c0>
ffffffff80000ad8:	911d6000 	add	x0, x0, #0x758
ffffffff80000adc:	f9400000 	ldr	x0, [x0]
ffffffff80000ae0:	f9407c02 	ldr	x2, [x0, #248]
ffffffff80000ae4:	d0000140 	adrp	x0, ffffffff8002a000 <builtin_font+0x109c0>
ffffffff80000ae8:	911d6000 	add	x0, x0, #0x758
ffffffff80000aec:	f9400000 	ldr	x0, [x0]
ffffffff80000af0:	52800001 	mov	w1, #0x0                   	// #0
ffffffff80000af4:	d63f0040 	blr	x2
ffffffff80000af8:	d503201f 	nop
ffffffff80000afc:	a8c17bfd 	ldp	x29, x30, [sp], #16
ffffffff80000b00:	d65f03c0 	ret

ffffffff80000b04 <log_info>:
ffffffff80000b04:	a9ae7bfd 	stp	x29, x30, [sp, #-288]!
ffffffff80000b08:	910003fd 	mov	x29, sp
ffffffff80000b0c:	f9001fe0 	str	x0, [sp, #56]
ffffffff80000b10:	f90077e1 	str	x1, [sp, #232]
ffffffff80000b14:	f9007be2 	str	x2, [sp, #240]
ffffffff80000b18:	f9007fe3 	str	x3, [sp, #248]
ffffffff80000b1c:	f90083e4 	str	x4, [sp, #256]
ffffffff80000b20:	f90087e5 	str	x5, [sp, #264]
ffffffff80000b24:	f9008be6 	str	x6, [sp, #272]
ffffffff80000b28:	f9008fe7 	str	x7, [sp, #280]
ffffffff80000b2c:	3d801be0 	str	q0, [sp, #96]
ffffffff80000b30:	3d801fe1 	str	q1, [sp, #112]
ffffffff80000b34:	3d8023e2 	str	q2, [sp, #128]
ffffffff80000b38:	3d8027e3 	str	q3, [sp, #144]
ffffffff80000b3c:	3d802be4 	str	q4, [sp, #160]
ffffffff80000b40:	3d802fe5 	str	q5, [sp, #176]
ffffffff80000b44:	3d8033e6 	str	q6, [sp, #192]
ffffffff80000b48:	3d8037e7 	str	q7, [sp, #208]
ffffffff80000b4c:	910483e0 	add	x0, sp, #0x120
ffffffff80000b50:	f90023e0 	str	x0, [sp, #64]
ffffffff80000b54:	910483e0 	add	x0, sp, #0x120
ffffffff80000b58:	f90027e0 	str	x0, [sp, #72]
ffffffff80000b5c:	910383e0 	add	x0, sp, #0xe0
ffffffff80000b60:	f9002be0 	str	x0, [sp, #80]
ffffffff80000b64:	128006e0 	mov	w0, #0xffffffc8            	// #-56
ffffffff80000b68:	b9005be0 	str	w0, [sp, #88]
ffffffff80000b6c:	12800fe0 	mov	w0, #0xffffff80            	// #-128
ffffffff80000b70:	b9005fe0 	str	w0, [sp, #92]
ffffffff80000b74:	910043e0 	add	x0, sp, #0x10
ffffffff80000b78:	910103e1 	add	x1, sp, #0x40
ffffffff80000b7c:	ad400420 	ldp	q0, q1, [x1]
ffffffff80000b80:	ad000400 	stp	q0, q1, [x0]
ffffffff80000b84:	910043e0 	add	x0, sp, #0x10
ffffffff80000b88:	aa0003e3 	mov	x3, x0
ffffffff80000b8c:	f9401fe2 	ldr	x2, [sp, #56]
ffffffff80000b90:	900000c0 	adrp	x0, ffffffff80018000 <_exc_lower_32_serror+0x10080>
ffffffff80000b94:	91014001 	add	x1, x0, #0x50
ffffffff80000b98:	900000c0 	adrp	x0, ffffffff80018000 <_exc_lower_32_serror+0x10080>
ffffffff80000b9c:	91016000 	add	x0, x0, #0x58
ffffffff80000ba0:	97fffebb 	bl	ffffffff8000068c <tprintf>
ffffffff80000ba4:	d503201f 	nop
ffffffff80000ba8:	a8d27bfd 	ldp	x29, x30, [sp], #288
ffffffff80000bac:	d65f03c0 	ret

ffffffff80000bb0 <log_warn>:
ffffffff80000bb0:	a9ae7bfd 	stp	x29, x30, [sp, #-288]!
ffffffff80000bb4:	910003fd 	mov	x29, sp
ffffffff80000bb8:	f9001fe0 	str	x0, [sp, #56]
ffffffff80000bbc:	f90077e1 	str	x1, [sp, #232]
ffffffff80000bc0:	f9007be2 	str	x2, [sp, #240]
ffffffff80000bc4:	f9007fe3 	str	x3, [sp, #248]
ffffffff80000bc8:	f90083e4 	str	x4, [sp, #256]
ffffffff80000bcc:	f90087e5 	str	x5, [sp, #264]
ffffffff80000bd0:	f9008be6 	str	x6, [sp, #272]
ffffffff80000bd4:	f9008fe7 	str	x7, [sp, #280]
ffffffff80000bd8:	3d801be0 	str	q0, [sp, #96]
ffffffff80000bdc:	3d801fe1 	str	q1, [sp, #112]
ffffffff80000be0:	3d8023e2 	str	q2, [sp, #128]
ffffffff80000be4:	3d8027e3 	str	q3, [sp, #144]
ffffffff80000be8:	3d802be4 	str	q4, [sp, #160]
ffffffff80000bec:	3d802fe5 	str	q5, [sp, #176]
ffffffff80000bf0:	3d8033e6 	str	q6, [sp, #192]
ffffffff80000bf4:	3d8037e7 	str	q7, [sp, #208]
ffffffff80000bf8:	910483e0 	add	x0, sp, #0x120
ffffffff80000bfc:	f90023e0 	str	x0, [sp, #64]
ffffffff80000c00:	910483e0 	add	x0, sp, #0x120
ffffffff80000c04:	f90027e0 	str	x0, [sp, #72]
ffffffff80000c08:	910383e0 	add	x0, sp, #0xe0
ffffffff80000c0c:	f9002be0 	str	x0, [sp, #80]
ffffffff80000c10:	128006e0 	mov	w0, #0xffffffc8            	// #-56
ffffffff80000c14:	b9005be0 	str	w0, [sp, #88]
ffffffff80000c18:	12800fe0 	mov	w0, #0xffffff80            	// #-128
ffffffff80000c1c:	b9005fe0 	str	w0, [sp, #92]
ffffffff80000c20:	910043e0 	add	x0, sp, #0x10
ffffffff80000c24:	910103e1 	add	x1, sp, #0x40
ffffffff80000c28:	ad400420 	ldp	q0, q1, [x1]
ffffffff80000c2c:	ad000400 	stp	q0, q1, [x0]
ffffffff80000c30:	910043e0 	add	x0, sp, #0x10
ffffffff80000c34:	aa0003e3 	mov	x3, x0
ffffffff80000c38:	f9401fe2 	ldr	x2, [sp, #56]
ffffffff80000c3c:	900000c0 	adrp	x0, ffffffff80018000 <_exc_lower_32_serror+0x10080>
ffffffff80000c40:	91018001 	add	x1, x0, #0x60
ffffffff80000c44:	900000c0 	adrp	x0, ffffffff80018000 <_exc_lower_32_serror+0x10080>
ffffffff80000c48:	91016000 	add	x0, x0, #0x58
ffffffff80000c4c:	97fffe90 	bl	ffffffff8000068c <tprintf>
ffffffff80000c50:	d503201f 	nop
ffffffff80000c54:	a8d27bfd 	ldp	x29, x30, [sp], #288
ffffffff80000c58:	d65f03c0 	ret

ffffffff80000c5c <log_erro>:
ffffffff80000c5c:	a9ae7bfd 	stp	x29, x30, [sp, #-288]!
ffffffff80000c60:	910003fd 	mov	x29, sp
ffffffff80000c64:	f9001fe0 	str	x0, [sp, #56]
ffffffff80000c68:	f90077e1 	str	x1, [sp, #232]
ffffffff80000c6c:	f9007be2 	str	x2, [sp, #240]
ffffffff80000c70:	f9007fe3 	str	x3, [sp, #248]
ffffffff80000c74:	f90083e4 	str	x4, [sp, #256]
ffffffff80000c78:	f90087e5 	str	x5, [sp, #264]
ffffffff80000c7c:	f9008be6 	str	x6, [sp, #272]
ffffffff80000c80:	f9008fe7 	str	x7, [sp, #280]
ffffffff80000c84:	3d801be0 	str	q0, [sp, #96]
ffffffff80000c88:	3d801fe1 	str	q1, [sp, #112]
ffffffff80000c8c:	3d8023e2 	str	q2, [sp, #128]
ffffffff80000c90:	3d8027e3 	str	q3, [sp, #144]
ffffffff80000c94:	3d802be4 	str	q4, [sp, #160]
ffffffff80000c98:	3d802fe5 	str	q5, [sp, #176]
ffffffff80000c9c:	3d8033e6 	str	q6, [sp, #192]
ffffffff80000ca0:	3d8037e7 	str	q7, [sp, #208]
ffffffff80000ca4:	910483e0 	add	x0, sp, #0x120
ffffffff80000ca8:	f90023e0 	str	x0, [sp, #64]
ffffffff80000cac:	910483e0 	add	x0, sp, #0x120
ffffffff80000cb0:	f90027e0 	str	x0, [sp, #72]
ffffffff80000cb4:	910383e0 	add	x0, sp, #0xe0
ffffffff80000cb8:	f9002be0 	str	x0, [sp, #80]
ffffffff80000cbc:	128006e0 	mov	w0, #0xffffffc8            	// #-56
ffffffff80000cc0:	b9005be0 	str	w0, [sp, #88]
ffffffff80000cc4:	12800fe0 	mov	w0, #0xffffff80            	// #-128
ffffffff80000cc8:	b9005fe0 	str	w0, [sp, #92]
ffffffff80000ccc:	910043e0 	add	x0, sp, #0x10
ffffffff80000cd0:	910103e1 	add	x1, sp, #0x40
ffffffff80000cd4:	ad400420 	ldp	q0, q1, [x1]
ffffffff80000cd8:	ad000400 	stp	q0, q1, [x0]
ffffffff80000cdc:	910043e0 	add	x0, sp, #0x10
ffffffff80000ce0:	aa0003e3 	mov	x3, x0
ffffffff80000ce4:	f9401fe2 	ldr	x2, [sp, #56]
ffffffff80000ce8:	900000c0 	adrp	x0, ffffffff80018000 <_exc_lower_32_serror+0x10080>
ffffffff80000cec:	9101a001 	add	x1, x0, #0x68
ffffffff80000cf0:	900000c0 	adrp	x0, ffffffff80018000 <_exc_lower_32_serror+0x10080>
ffffffff80000cf4:	91016000 	add	x0, x0, #0x58
ffffffff80000cf8:	97fffe65 	bl	ffffffff8000068c <tprintf>
ffffffff80000cfc:	d503201f 	nop
ffffffff80000d00:	a8d27bfd 	ldp	x29, x30, [sp], #288
ffffffff80000d04:	d65f03c0 	ret

ffffffff80000d08 <early_panic>:
ffffffff80000d08:	58001280 	ldr	x0, ffffffff80000f58 <kmain+0x130>
ffffffff80000d0c:	d503207f 	wfi
ffffffff80000d10:	d503205f 	wfe
ffffffff80000d14:	d503201f 	nop
ffffffff80000d18:	17ffffff 	b	ffffffff80000d14 <early_panic+0xc>

ffffffff80000d1c <panic>:
ffffffff80000d1c:	a9be7bfd 	stp	x29, x30, [sp, #-32]!
ffffffff80000d20:	910003fd 	mov	x29, sp
ffffffff80000d24:	f9000fe0 	str	x0, [sp, #24]
ffffffff80000d28:	97ffff69 	bl	ffffffff80000acc <clear>
ffffffff80000d2c:	f9400fe1 	ldr	x1, [sp, #24]
ffffffff80000d30:	900000c0 	adrp	x0, ffffffff80018000 <_exc_lower_32_serror+0x10080>
ffffffff80000d34:	9101c000 	add	x0, x0, #0x70
ffffffff80000d38:	97fffe55 	bl	ffffffff8000068c <tprintf>
ffffffff80000d3c:	97fffff3 	bl	ffffffff80000d08 <early_panic>
ffffffff80000d40:	d503201f 	nop
ffffffff80000d44:	a8c27bfd 	ldp	x29, x30, [sp], #32
ffffffff80000d48:	d65f03c0 	ret

ffffffff80000d4c <set_vbar_el1>:
ffffffff80000d4c:	d10043ff 	sub	sp, sp, #0x10
ffffffff80000d50:	f90007e0 	str	x0, [sp, #8]
ffffffff80000d54:	f94007e0 	ldr	x0, [sp, #8]
ffffffff80000d58:	d518c000 	msr	vbar_el1, x0
ffffffff80000d5c:	d503201f 	nop
ffffffff80000d60:	910043ff 	add	sp, sp, #0x10
ffffffff80000d64:	d65f03c0 	ret

ffffffff80000d68 <process_memory>:
ffffffff80000d68:	a9be7bfd 	stp	x29, x30, [sp, #-32]!
ffffffff80000d6c:	910003fd 	mov	x29, sp
ffffffff80000d70:	f9000fe0 	str	x0, [sp, #24]
ffffffff80000d74:	f9400fe0 	ldr	x0, [sp, #24]
ffffffff80000d78:	f9400800 	ldr	x0, [x0, #16]
ffffffff80000d7c:	f1001c1f 	cmp	x0, #0x7
ffffffff80000d80:	54000180 	b.eq	ffffffff80000db0 <process_memory+0x48>  // b.none
ffffffff80000d84:	f1001c1f 	cmp	x0, #0x7
ffffffff80000d88:	540003a8 	b.hi	ffffffff80000dfc <process_memory+0x94>  // b.pmore
ffffffff80000d8c:	f100081f 	cmp	x0, #0x2
ffffffff80000d90:	54000280 	b.eq	ffffffff80000de0 <process_memory+0x78>  // b.none
ffffffff80000d94:	f100081f 	cmp	x0, #0x2
ffffffff80000d98:	54000328 	b.hi	ffffffff80000dfc <process_memory+0x94>  // b.pmore
ffffffff80000d9c:	f100001f 	cmp	x0, #0x0
ffffffff80000da0:	54000100 	b.eq	ffffffff80000dc0 <process_memory+0x58>  // b.none
ffffffff80000da4:	f100041f 	cmp	x0, #0x1
ffffffff80000da8:	54000140 	b.eq	ffffffff80000dd0 <process_memory+0x68>  // b.none
ffffffff80000dac:	14000014 	b	ffffffff80000dfc <process_memory+0x94>
ffffffff80000db0:	900000c0 	adrp	x0, ffffffff80018000 <_exc_lower_32_serror+0x10080>
ffffffff80000db4:	91022000 	add	x0, x0, #0x88
ffffffff80000db8:	97ffff53 	bl	ffffffff80000b04 <log_info>
ffffffff80000dbc:	14000010 	b	ffffffff80000dfc <process_memory+0x94>
ffffffff80000dc0:	900000c0 	adrp	x0, ffffffff80018000 <_exc_lower_32_serror+0x10080>
ffffffff80000dc4:	9102c000 	add	x0, x0, #0xb0
ffffffff80000dc8:	97ffff4f 	bl	ffffffff80000b04 <log_info>
ffffffff80000dcc:	1400000c 	b	ffffffff80000dfc <process_memory+0x94>
ffffffff80000dd0:	900000c0 	adrp	x0, ffffffff80018000 <_exc_lower_32_serror+0x10080>
ffffffff80000dd4:	91034000 	add	x0, x0, #0xd0
ffffffff80000dd8:	97ffff4b 	bl	ffffffff80000b04 <log_info>
ffffffff80000ddc:	14000008 	b	ffffffff80000dfc <process_memory+0x94>
ffffffff80000de0:	900000c0 	adrp	x0, ffffffff80018000 <_exc_lower_32_serror+0x10080>
ffffffff80000de4:	9103c000 	add	x0, x0, #0xf0
ffffffff80000de8:	97ffff47 	bl	ffffffff80000b04 <log_info>
ffffffff80000dec:	f9400fe0 	ldr	x0, [sp, #24]
ffffffff80000df0:	f9400000 	ldr	x0, [x0]
ffffffff80000df4:	9400005b 	bl	ffffffff80000f60 <init_rspd>
ffffffff80000df8:	d503201f 	nop
ffffffff80000dfc:	d503201f 	nop
ffffffff80000e00:	a8c27bfd 	ldp	x29, x30, [sp], #32
ffffffff80000e04:	d65f03c0 	ret

ffffffff80000e08 <kfault>:
ffffffff80000e08:	a9bf7bfd 	stp	x29, x30, [sp, #-16]!
ffffffff80000e0c:	910003fd 	mov	x29, sp
ffffffff80000e10:	900000c0 	adrp	x0, ffffffff80018000 <_exc_lower_32_serror+0x10080>
ffffffff80000e14:	91048000 	add	x0, x0, #0x120
ffffffff80000e18:	97ffffc1 	bl	ffffffff80000d1c <panic>
ffffffff80000e1c:	d503201f 	nop
ffffffff80000e20:	a8c17bfd 	ldp	x29, x30, [sp], #16
ffffffff80000e24:	d65f03c0 	ret

ffffffff80000e28 <kmain>:
ffffffff80000e28:	a9bd7bfd 	stp	x29, x30, [sp, #-48]!
ffffffff80000e2c:	910003fd 	mov	x29, sp
ffffffff80000e30:	d0000140 	adrp	x0, ffffffff8002a000 <builtin_font+0x109c0>
ffffffff80000e34:	91190000 	add	x0, x0, #0x640
ffffffff80000e38:	f9400800 	ldr	x0, [x0, #16]
ffffffff80000e3c:	f100001f 	cmp	x0, #0x0
ffffffff80000e40:	54000040 	b.eq	ffffffff80000e48 <kmain+0x20>  // b.none
ffffffff80000e44:	97ffffb1 	bl	ffffffff80000d08 <early_panic>
ffffffff80000e48:	d0000140 	adrp	x0, ffffffff8002a000 <builtin_font+0x109c0>
ffffffff80000e4c:	911a4000 	add	x0, x0, #0x690
ffffffff80000e50:	f9401400 	ldr	x0, [x0, #40]
ffffffff80000e54:	f100001f 	cmp	x0, #0x0
ffffffff80000e58:	540000e0 	b.eq	ffffffff80000e74 <kmain+0x4c>  // b.none
ffffffff80000e5c:	d0000140 	adrp	x0, ffffffff8002a000 <builtin_font+0x109c0>
ffffffff80000e60:	911a4000 	add	x0, x0, #0x690
ffffffff80000e64:	f9401400 	ldr	x0, [x0, #40]
ffffffff80000e68:	f9400400 	ldr	x0, [x0, #8]
ffffffff80000e6c:	f100001f 	cmp	x0, #0x0
ffffffff80000e70:	54000041 	b.ne	ffffffff80000e78 <kmain+0x50>  // b.any
ffffffff80000e74:	97ffffa5 	bl	ffffffff80000d08 <early_panic>
ffffffff80000e78:	d0000140 	adrp	x0, ffffffff8002a000 <builtin_font+0x109c0>
ffffffff80000e7c:	911a4000 	add	x0, x0, #0x690
ffffffff80000e80:	f9401400 	ldr	x0, [x0, #40]
ffffffff80000e84:	f9400800 	ldr	x0, [x0, #16]
ffffffff80000e88:	f9400000 	ldr	x0, [x0]
ffffffff80000e8c:	f90013e0 	str	x0, [sp, #32]
ffffffff80000e90:	f94013e0 	ldr	x0, [sp, #32]
ffffffff80000e94:	97fffdd4 	bl	ffffffff800005e4 <terminal_init>
ffffffff80000e98:	d0000140 	adrp	x0, ffffffff8002a000 <builtin_font+0x109c0>
ffffffff80000e9c:	911bc000 	add	x0, x0, #0x6f0
ffffffff80000ea0:	f9401400 	ldr	x0, [x0, #40]
ffffffff80000ea4:	f9400401 	ldr	x1, [x0, #8]
ffffffff80000ea8:	d0000140 	adrp	x0, ffffffff8002a000 <builtin_font+0x109c0>
ffffffff80000eac:	911bc000 	add	x0, x0, #0x6f0
ffffffff80000eb0:	f9401400 	ldr	x0, [x0, #40]
ffffffff80000eb4:	f9400800 	ldr	x0, [x0, #16]
ffffffff80000eb8:	aa0003e2 	mov	x2, x0
ffffffff80000ebc:	900000c0 	adrp	x0, ffffffff80018000 <_exc_lower_32_serror+0x10080>
ffffffff80000ec0:	9104a000 	add	x0, x0, #0x128
ffffffff80000ec4:	97fffdf2 	bl	ffffffff8000068c <tprintf>
ffffffff80000ec8:	900000c0 	adrp	x0, ffffffff80018000 <_exc_lower_32_serror+0x10080>
ffffffff80000ecc:	91052000 	add	x0, x0, #0x148
ffffffff80000ed0:	97ffff0d 	bl	ffffffff80000b04 <log_info>
ffffffff80000ed4:	900000c0 	adrp	x0, ffffffff80018000 <_exc_lower_32_serror+0x10080>
ffffffff80000ed8:	91058000 	add	x0, x0, #0x160
ffffffff80000edc:	97ffff0a 	bl	ffffffff80000b04 <log_info>
ffffffff80000ee0:	f0000020 	adrp	x0, ffffffff80007000 <flanterm_fb_init+0xa14>
ffffffff80000ee4:	91200000 	add	x0, x0, #0x800
ffffffff80000ee8:	97ffff99 	bl	ffffffff80000d4c <set_vbar_el1>
ffffffff80000eec:	d0000140 	adrp	x0, ffffffff8002a000 <builtin_font+0x109c0>
ffffffff80000ef0:	911b0000 	add	x0, x0, #0x6c0
ffffffff80000ef4:	f9401400 	ldr	x0, [x0, #40]
ffffffff80000ef8:	f9000fe0 	str	x0, [sp, #24]
ffffffff80000efc:	f90017ff 	str	xzr, [sp, #40]
ffffffff80000f00:	1400000d 	b	ffffffff80000f34 <kmain+0x10c>
ffffffff80000f04:	f9400fe0 	ldr	x0, [sp, #24]
ffffffff80000f08:	f9400801 	ldr	x1, [x0, #16]
ffffffff80000f0c:	f94017e0 	ldr	x0, [sp, #40]
ffffffff80000f10:	d37df000 	lsl	x0, x0, #3
ffffffff80000f14:	8b000020 	add	x0, x1, x0
ffffffff80000f18:	f9400000 	ldr	x0, [x0]
ffffffff80000f1c:	f9000be0 	str	x0, [sp, #16]
ffffffff80000f20:	f9400be0 	ldr	x0, [sp, #16]
ffffffff80000f24:	97ffff91 	bl	ffffffff80000d68 <process_memory>
ffffffff80000f28:	f94017e0 	ldr	x0, [sp, #40]
ffffffff80000f2c:	91000400 	add	x0, x0, #0x1
ffffffff80000f30:	f90017e0 	str	x0, [sp, #40]
ffffffff80000f34:	f9400fe0 	ldr	x0, [sp, #24]
ffffffff80000f38:	f9400400 	ldr	x0, [x0, #8]
ffffffff80000f3c:	f94017e1 	ldr	x1, [sp, #40]
ffffffff80000f40:	eb00003f 	cmp	x1, x0
ffffffff80000f44:	54fffe03 	b.cc	ffffffff80000f04 <kmain+0xdc>  // b.lo, b.ul, b.last
ffffffff80000f48:	900000c0 	adrp	x0, ffffffff80018000 <_exc_lower_32_serror+0x10080>
ffffffff80000f4c:	91062000 	add	x0, x0, #0x188
ffffffff80000f50:	97fffeed 	bl	ffffffff80000b04 <log_info>
ffffffff80000f54:	14000000 	b	ffffffff80000f54 <kmain+0x12c>
ffffffff80000f58:	deadbeef 	.word	0xdeadbeef
ffffffff80000f5c:	00000000 	.word	0x00000000

ffffffff80000f60 <init_rspd>:
ffffffff80000f60:	a9bd7bfd 	stp	x29, x30, [sp, #-48]!
ffffffff80000f64:	910003fd 	mov	x29, sp
ffffffff80000f68:	f9000fe0 	str	x0, [sp, #24]
ffffffff80000f6c:	910063e0 	add	x0, sp, #0x18
ffffffff80000f70:	f90017e0 	str	x0, [sp, #40]
ffffffff80000f74:	900000c0 	adrp	x0, ffffffff80018000 <_exc_lower_32_serror+0x10080>
ffffffff80000f78:	91064000 	add	x0, x0, #0x190
ffffffff80000f7c:	97fffdc4 	bl	ffffffff8000068c <tprintf>
ffffffff80000f80:	f94017e0 	ldr	x0, [sp, #40]
ffffffff80000f84:	aa0003e1 	mov	x1, x0
ffffffff80000f88:	900000c0 	adrp	x0, ffffffff80018000 <_exc_lower_32_serror+0x10080>
ffffffff80000f8c:	91066000 	add	x0, x0, #0x198
ffffffff80000f90:	97fffdbf 	bl	ffffffff8000068c <tprintf>
ffffffff80000f94:	d503201f 	nop
ffffffff80000f98:	a8c37bfd 	ldp	x29, x30, [sp], #48
ffffffff80000f9c:	d65f03c0 	ret

ffffffff80000fa0 <flanterm_context_reinit>:
ffffffff80000fa0:	d10043ff 	sub	sp, sp, #0x10
ffffffff80000fa4:	f90007e0 	str	x0, [sp, #8]
ffffffff80000fa8:	f94007e0 	ldr	x0, [sp, #8]
ffffffff80000fac:	d2800101 	mov	x1, #0x8                   	// #8
ffffffff80000fb0:	f9000001 	str	x1, [x0]
ffffffff80000fb4:	f94007e0 	ldr	x0, [sp, #8]
ffffffff80000fb8:	52800021 	mov	w1, #0x1                   	// #1
ffffffff80000fbc:	39002001 	strb	w1, [x0, #8]
ffffffff80000fc0:	f94007e0 	ldr	x0, [sp, #8]
ffffffff80000fc4:	52800021 	mov	w1, #0x1                   	// #1
ffffffff80000fc8:	39002401 	strb	w1, [x0, #9]
ffffffff80000fcc:	f94007e0 	ldr	x0, [sp, #8]
ffffffff80000fd0:	52800021 	mov	w1, #0x1                   	// #1
ffffffff80000fd4:	39002801 	strb	w1, [x0, #10]
ffffffff80000fd8:	f94007e0 	ldr	x0, [sp, #8]
ffffffff80000fdc:	39002c1f 	strb	wzr, [x0, #11]
ffffffff80000fe0:	f94007e0 	ldr	x0, [sp, #8]
ffffffff80000fe4:	3900301f 	strb	wzr, [x0, #12]
ffffffff80000fe8:	f94007e0 	ldr	x0, [sp, #8]
ffffffff80000fec:	3900341f 	strb	wzr, [x0, #13]
ffffffff80000ff0:	f94007e0 	ldr	x0, [sp, #8]
ffffffff80000ff4:	3900381f 	strb	wzr, [x0, #14]
ffffffff80000ff8:	f94007e0 	ldr	x0, [sp, #8]
ffffffff80000ffc:	39003c1f 	strb	wzr, [x0, #15]
ffffffff80001000:	f94007e0 	ldr	x0, [sp, #8]
ffffffff80001004:	3900401f 	strb	wzr, [x0, #16]
ffffffff80001008:	f94007e0 	ldr	x0, [sp, #8]
ffffffff8000100c:	3900441f 	strb	wzr, [x0, #17]
ffffffff80001010:	f94007e0 	ldr	x0, [sp, #8]
ffffffff80001014:	3900481f 	strb	wzr, [x0, #18]
ffffffff80001018:	f94007e0 	ldr	x0, [sp, #8]
ffffffff8000101c:	39004c1f 	strb	wzr, [x0, #19]
ffffffff80001020:	f94007e0 	ldr	x0, [sp, #8]
ffffffff80001024:	3900501f 	strb	wzr, [x0, #20]
ffffffff80001028:	f94007e0 	ldr	x0, [sp, #8]
ffffffff8000102c:	3900541f 	strb	wzr, [x0, #21]
ffffffff80001030:	f94007e0 	ldr	x0, [sp, #8]
ffffffff80001034:	3900581f 	strb	wzr, [x0, #22]
ffffffff80001038:	f94007e0 	ldr	x0, [sp, #8]
ffffffff8000103c:	f900101f 	str	xzr, [x0, #32]
ffffffff80001040:	f94007e0 	ldr	x0, [sp, #8]
ffffffff80001044:	3900a01f 	strb	wzr, [x0, #40]
ffffffff80001048:	f94007e0 	ldr	x0, [sp, #8]
ffffffff8000104c:	3900a41f 	strb	wzr, [x0, #41]
ffffffff80001050:	f94007e0 	ldr	x0, [sp, #8]
ffffffff80001054:	52800021 	mov	w1, #0x1                   	// #1
ffffffff80001058:	3900a801 	strb	w1, [x0, #42]
ffffffff8000105c:	f94007e0 	ldr	x0, [sp, #8]
ffffffff80001060:	f900181f 	str	xzr, [x0, #48]
ffffffff80001064:	f94007e0 	ldr	x0, [sp, #8]
ffffffff80001068:	f9001c1f 	str	xzr, [x0, #56]
ffffffff8000106c:	f94007e0 	ldr	x0, [sp, #8]
ffffffff80001070:	f900201f 	str	xzr, [x0, #64]
ffffffff80001074:	f94007e0 	ldr	x0, [sp, #8]
ffffffff80001078:	f900241f 	str	xzr, [x0, #72]
ffffffff8000107c:	f94007e0 	ldr	x0, [sp, #8]
ffffffff80001080:	f900281f 	str	xzr, [x0, #80]
ffffffff80001084:	f94007e0 	ldr	x0, [sp, #8]
ffffffff80001088:	92800001 	mov	x1, #0xffffffffffffffff    	// #-1
ffffffff8000108c:	f9002c01 	str	x1, [x0, #88]
ffffffff80001090:	f94007e0 	ldr	x0, [sp, #8]
ffffffff80001094:	92800001 	mov	x1, #0xffffffffffffffff    	// #-1
ffffffff80001098:	f9003001 	str	x1, [x0, #96]
ffffffff8000109c:	f94007e0 	ldr	x0, [sp, #8]
ffffffff800010a0:	f900341f 	str	xzr, [x0, #104]
ffffffff800010a4:	f94007e0 	ldr	x0, [sp, #8]
ffffffff800010a8:	f9407001 	ldr	x1, [x0, #224]
ffffffff800010ac:	f94007e0 	ldr	x0, [sp, #8]
ffffffff800010b0:	f9003801 	str	x1, [x0, #112]
ffffffff800010b4:	f94007e0 	ldr	x0, [sp, #8]
ffffffff800010b8:	d2800201 	mov	x1, #0x10                  	// #16
ffffffff800010bc:	f9005c01 	str	x1, [x0, #184]
ffffffff800010c0:	d503201f 	nop
ffffffff800010c4:	910043ff 	add	sp, sp, #0x10
ffffffff800010c8:	d65f03c0 	ret

ffffffff800010cc <flanterm_write>:
ffffffff800010cc:	a9bc7bfd 	stp	x29, x30, [sp, #-64]!
ffffffff800010d0:	910003fd 	mov	x29, sp
ffffffff800010d4:	f90017e0 	str	x0, [sp, #40]
ffffffff800010d8:	f90013e1 	str	x1, [sp, #32]
ffffffff800010dc:	f9000fe2 	str	x2, [sp, #24]
ffffffff800010e0:	f9001fff 	str	xzr, [sp, #56]
ffffffff800010e4:	1400000b 	b	ffffffff80001110 <flanterm_write+0x44>
ffffffff800010e8:	f94013e1 	ldr	x1, [sp, #32]
ffffffff800010ec:	f9401fe0 	ldr	x0, [sp, #56]
ffffffff800010f0:	8b000020 	add	x0, x1, x0
ffffffff800010f4:	39400000 	ldrb	w0, [x0]
ffffffff800010f8:	2a0003e1 	mov	w1, w0
ffffffff800010fc:	f94017e0 	ldr	x0, [sp, #40]
ffffffff80001100:	94000d26 	bl	ffffffff80004598 <flanterm_putchar>
ffffffff80001104:	f9401fe0 	ldr	x0, [sp, #56]
ffffffff80001108:	91000400 	add	x0, x0, #0x1
ffffffff8000110c:	f9001fe0 	str	x0, [sp, #56]
ffffffff80001110:	f9401fe1 	ldr	x1, [sp, #56]
ffffffff80001114:	f9400fe0 	ldr	x0, [sp, #24]
ffffffff80001118:	eb00003f 	cmp	x1, x0
ffffffff8000111c:	54fffe63 	b.cc	ffffffff800010e8 <flanterm_write+0x1c>  // b.lo, b.ul, b.last
ffffffff80001120:	f94017e0 	ldr	x0, [sp, #40]
ffffffff80001124:	39402000 	ldrb	w0, [x0, #8]
ffffffff80001128:	12000000 	and	w0, w0, #0x1
ffffffff8000112c:	7100001f 	cmp	w0, #0x0
ffffffff80001130:	540000a0 	b.eq	ffffffff80001144 <flanterm_write+0x78>  // b.none
ffffffff80001134:	f94017e0 	ldr	x0, [sp, #40]
ffffffff80001138:	f940c801 	ldr	x1, [x0, #400]
ffffffff8000113c:	f94017e0 	ldr	x0, [sp, #40]
ffffffff80001140:	d63f0020 	blr	x1
ffffffff80001144:	d503201f 	nop
ffffffff80001148:	a8c47bfd 	ldp	x29, x30, [sp], #64
ffffffff8000114c:	d65f03c0 	ret

ffffffff80001150 <sgr>:
ffffffff80001150:	a9bc7bfd 	stp	x29, x30, [sp, #-64]!
ffffffff80001154:	910003fd 	mov	x29, sp
ffffffff80001158:	f9000fe0 	str	x0, [sp, #24]
ffffffff8000115c:	f9001fff 	str	xzr, [sp, #56]
ffffffff80001160:	f9400fe0 	ldr	x0, [sp, #24]
ffffffff80001164:	f9402000 	ldr	x0, [x0, #64]
ffffffff80001168:	f100001f 	cmp	x0, #0x0
ffffffff8000116c:	54006b21 	b.ne	ffffffff80001ed0 <sgr+0xd80>  // b.any
ffffffff80001170:	1400000a 	b	ffffffff80001198 <sgr+0x48>
ffffffff80001174:	f9400fe1 	ldr	x1, [sp, #24]
ffffffff80001178:	f9401fe0 	ldr	x0, [sp, #56]
ffffffff8000117c:	91007000 	add	x0, x0, #0x1c
ffffffff80001180:	d37ef400 	lsl	x0, x0, #2
ffffffff80001184:	8b000020 	add	x0, x1, x0
ffffffff80001188:	b9400800 	ldr	w0, [x0, #8]
ffffffff8000118c:	7100001f 	cmp	w0, #0x0
ffffffff80001190:	54000401 	b.ne	ffffffff80001210 <sgr+0xc0>  // b.any
ffffffff80001194:	d503201f 	nop
ffffffff80001198:	f9400fe0 	ldr	x0, [sp, #24]
ffffffff8000119c:	39405000 	ldrb	w0, [x0, #20]
ffffffff800011a0:	12000000 	and	w0, w0, #0x1
ffffffff800011a4:	7100001f 	cmp	w0, #0x0
ffffffff800011a8:	540000e0 	b.eq	ffffffff800011c4 <sgr+0x74>  // b.none
ffffffff800011ac:	f9400fe0 	ldr	x0, [sp, #24]
ffffffff800011b0:	3900501f 	strb	wzr, [x0, #20]
ffffffff800011b4:	f9400fe0 	ldr	x0, [sp, #24]
ffffffff800011b8:	f940bc01 	ldr	x1, [x0, #376]
ffffffff800011bc:	f9400fe0 	ldr	x0, [sp, #24]
ffffffff800011c0:	d63f0020 	blr	x1
ffffffff800011c4:	f9400fe0 	ldr	x0, [sp, #24]
ffffffff800011c8:	3900481f 	strb	wzr, [x0, #18]
ffffffff800011cc:	f9400fe0 	ldr	x0, [sp, #24]
ffffffff800011d0:	39004c1f 	strb	wzr, [x0, #19]
ffffffff800011d4:	f9400fe0 	ldr	x0, [sp, #24]
ffffffff800011d8:	92800001 	mov	x1, #0xffffffffffffffff    	// #-1
ffffffff800011dc:	f9002c01 	str	x1, [x0, #88]
ffffffff800011e0:	f9400fe0 	ldr	x0, [sp, #24]
ffffffff800011e4:	92800001 	mov	x1, #0xffffffffffffffff    	// #-1
ffffffff800011e8:	f9003001 	str	x1, [x0, #96]
ffffffff800011ec:	f9400fe0 	ldr	x0, [sp, #24]
ffffffff800011f0:	f940a401 	ldr	x1, [x0, #328]
ffffffff800011f4:	f9400fe0 	ldr	x0, [sp, #24]
ffffffff800011f8:	d63f0020 	blr	x1
ffffffff800011fc:	f9400fe0 	ldr	x0, [sp, #24]
ffffffff80001200:	f940a001 	ldr	x1, [x0, #320]
ffffffff80001204:	f9400fe0 	ldr	x0, [sp, #24]
ffffffff80001208:	d63f0020 	blr	x1
ffffffff8000120c:	1400032d 	b	ffffffff80001ec0 <sgr+0xd70>
ffffffff80001210:	f9400fe1 	ldr	x1, [sp, #24]
ffffffff80001214:	f9401fe0 	ldr	x0, [sp, #56]
ffffffff80001218:	91007000 	add	x0, x0, #0x1c
ffffffff8000121c:	d37ef400 	lsl	x0, x0, #2
ffffffff80001220:	8b000020 	add	x0, x1, x0
ffffffff80001224:	b9400800 	ldr	w0, [x0, #8]
ffffffff80001228:	7100041f 	cmp	w0, #0x1
ffffffff8000122c:	54000601 	b.ne	ffffffff800012ec <sgr+0x19c>  // b.any
ffffffff80001230:	f9400fe0 	ldr	x0, [sp, #24]
ffffffff80001234:	52800021 	mov	w1, #0x1                   	// #1
ffffffff80001238:	39004801 	strb	w1, [x0, #18]
ffffffff8000123c:	f9400fe0 	ldr	x0, [sp, #24]
ffffffff80001240:	f9402c00 	ldr	x0, [x0, #88]
ffffffff80001244:	b100041f 	cmn	x0, #0x1
ffffffff80001248:	54000300 	b.eq	ffffffff800012a8 <sgr+0x158>  // b.none
ffffffff8000124c:	f9400fe0 	ldr	x0, [sp, #24]
ffffffff80001250:	39405000 	ldrb	w0, [x0, #20]
ffffffff80001254:	52000000 	eor	w0, w0, #0x1
ffffffff80001258:	12001c00 	and	w0, w0, #0xff
ffffffff8000125c:	12000000 	and	w0, w0, #0x1
ffffffff80001260:	7100001f 	cmp	w0, #0x0
ffffffff80001264:	54000120 	b.eq	ffffffff80001288 <sgr+0x138>  // b.none
ffffffff80001268:	f9400fe0 	ldr	x0, [sp, #24]
ffffffff8000126c:	f9409002 	ldr	x2, [x0, #288]
ffffffff80001270:	f9400fe0 	ldr	x0, [sp, #24]
ffffffff80001274:	f9402c00 	ldr	x0, [x0, #88]
ffffffff80001278:	aa0003e1 	mov	x1, x0
ffffffff8000127c:	f9400fe0 	ldr	x0, [sp, #24]
ffffffff80001280:	d63f0040 	blr	x2
ffffffff80001284:	1400030f 	b	ffffffff80001ec0 <sgr+0xd70>
ffffffff80001288:	f9400fe0 	ldr	x0, [sp, #24]
ffffffff8000128c:	f9409402 	ldr	x2, [x0, #296]
ffffffff80001290:	f9400fe0 	ldr	x0, [sp, #24]
ffffffff80001294:	f9402c00 	ldr	x0, [x0, #88]
ffffffff80001298:	aa0003e1 	mov	x1, x0
ffffffff8000129c:	f9400fe0 	ldr	x0, [sp, #24]
ffffffff800012a0:	d63f0040 	blr	x2
ffffffff800012a4:	14000307 	b	ffffffff80001ec0 <sgr+0xd70>
ffffffff800012a8:	f9400fe0 	ldr	x0, [sp, #24]
ffffffff800012ac:	39405000 	ldrb	w0, [x0, #20]
ffffffff800012b0:	52000000 	eor	w0, w0, #0x1
ffffffff800012b4:	12001c00 	and	w0, w0, #0xff
ffffffff800012b8:	12000000 	and	w0, w0, #0x1
ffffffff800012bc:	7100001f 	cmp	w0, #0x0
ffffffff800012c0:	540000c0 	b.eq	ffffffff800012d8 <sgr+0x188>  // b.none
ffffffff800012c4:	f9400fe0 	ldr	x0, [sp, #24]
ffffffff800012c8:	f940a801 	ldr	x1, [x0, #336]
ffffffff800012cc:	f9400fe0 	ldr	x0, [sp, #24]
ffffffff800012d0:	d63f0020 	blr	x1
ffffffff800012d4:	140002fb 	b	ffffffff80001ec0 <sgr+0xd70>
ffffffff800012d8:	f9400fe0 	ldr	x0, [sp, #24]
ffffffff800012dc:	f940ac01 	ldr	x1, [x0, #344]
ffffffff800012e0:	f9400fe0 	ldr	x0, [sp, #24]
ffffffff800012e4:	d63f0020 	blr	x1
ffffffff800012e8:	140002f6 	b	ffffffff80001ec0 <sgr+0xd70>
ffffffff800012ec:	f9400fe1 	ldr	x1, [sp, #24]
ffffffff800012f0:	f9401fe0 	ldr	x0, [sp, #56]
ffffffff800012f4:	91007000 	add	x0, x0, #0x1c
ffffffff800012f8:	d37ef400 	lsl	x0, x0, #2
ffffffff800012fc:	8b000020 	add	x0, x1, x0
ffffffff80001300:	b9400800 	ldr	w0, [x0, #8]
ffffffff80001304:	7100141f 	cmp	w0, #0x5
ffffffff80001308:	54000601 	b.ne	ffffffff800013c8 <sgr+0x278>  // b.any
ffffffff8000130c:	f9400fe0 	ldr	x0, [sp, #24]
ffffffff80001310:	52800021 	mov	w1, #0x1                   	// #1
ffffffff80001314:	39004c01 	strb	w1, [x0, #19]
ffffffff80001318:	f9400fe0 	ldr	x0, [sp, #24]
ffffffff8000131c:	f9403000 	ldr	x0, [x0, #96]
ffffffff80001320:	b100041f 	cmn	x0, #0x1
ffffffff80001324:	54000300 	b.eq	ffffffff80001384 <sgr+0x234>  // b.none
ffffffff80001328:	f9400fe0 	ldr	x0, [sp, #24]
ffffffff8000132c:	39405000 	ldrb	w0, [x0, #20]
ffffffff80001330:	52000000 	eor	w0, w0, #0x1
ffffffff80001334:	12001c00 	and	w0, w0, #0xff
ffffffff80001338:	12000000 	and	w0, w0, #0x1
ffffffff8000133c:	7100001f 	cmp	w0, #0x0
ffffffff80001340:	54000120 	b.eq	ffffffff80001364 <sgr+0x214>  // b.none
ffffffff80001344:	f9400fe0 	ldr	x0, [sp, #24]
ffffffff80001348:	f9409402 	ldr	x2, [x0, #296]
ffffffff8000134c:	f9400fe0 	ldr	x0, [sp, #24]
ffffffff80001350:	f9403000 	ldr	x0, [x0, #96]
ffffffff80001354:	aa0003e1 	mov	x1, x0
ffffffff80001358:	f9400fe0 	ldr	x0, [sp, #24]
ffffffff8000135c:	d63f0040 	blr	x2
ffffffff80001360:	140002d8 	b	ffffffff80001ec0 <sgr+0xd70>
ffffffff80001364:	f9400fe0 	ldr	x0, [sp, #24]
ffffffff80001368:	f9409002 	ldr	x2, [x0, #288]
ffffffff8000136c:	f9400fe0 	ldr	x0, [sp, #24]
ffffffff80001370:	f9403000 	ldr	x0, [x0, #96]
ffffffff80001374:	aa0003e1 	mov	x1, x0
ffffffff80001378:	f9400fe0 	ldr	x0, [sp, #24]
ffffffff8000137c:	d63f0040 	blr	x2
ffffffff80001380:	140002d0 	b	ffffffff80001ec0 <sgr+0xd70>
ffffffff80001384:	f9400fe0 	ldr	x0, [sp, #24]
ffffffff80001388:	39405000 	ldrb	w0, [x0, #20]
ffffffff8000138c:	52000000 	eor	w0, w0, #0x1
ffffffff80001390:	12001c00 	and	w0, w0, #0xff
ffffffff80001394:	12000000 	and	w0, w0, #0x1
ffffffff80001398:	7100001f 	cmp	w0, #0x0
ffffffff8000139c:	540000c0 	b.eq	ffffffff800013b4 <sgr+0x264>  // b.none
ffffffff800013a0:	f9400fe0 	ldr	x0, [sp, #24]
ffffffff800013a4:	f940ac01 	ldr	x1, [x0, #344]
ffffffff800013a8:	f9400fe0 	ldr	x0, [sp, #24]
ffffffff800013ac:	d63f0020 	blr	x1
ffffffff800013b0:	140002c4 	b	ffffffff80001ec0 <sgr+0xd70>
ffffffff800013b4:	f9400fe0 	ldr	x0, [sp, #24]
ffffffff800013b8:	f940a801 	ldr	x1, [x0, #336]
ffffffff800013bc:	f9400fe0 	ldr	x0, [sp, #24]
ffffffff800013c0:	d63f0020 	blr	x1
ffffffff800013c4:	140002bf 	b	ffffffff80001ec0 <sgr+0xd70>
ffffffff800013c8:	f9400fe1 	ldr	x1, [sp, #24]
ffffffff800013cc:	f9401fe0 	ldr	x0, [sp, #56]
ffffffff800013d0:	91007000 	add	x0, x0, #0x1c
ffffffff800013d4:	d37ef400 	lsl	x0, x0, #2
ffffffff800013d8:	8b000020 	add	x0, x1, x0
ffffffff800013dc:	b9400800 	ldr	w0, [x0, #8]
ffffffff800013e0:	7100581f 	cmp	w0, #0x16
ffffffff800013e4:	540005e1 	b.ne	ffffffff800014a0 <sgr+0x350>  // b.any
ffffffff800013e8:	f9400fe0 	ldr	x0, [sp, #24]
ffffffff800013ec:	3900481f 	strb	wzr, [x0, #18]
ffffffff800013f0:	f9400fe0 	ldr	x0, [sp, #24]
ffffffff800013f4:	f9402c00 	ldr	x0, [x0, #88]
ffffffff800013f8:	b100041f 	cmn	x0, #0x1
ffffffff800013fc:	54000300 	b.eq	ffffffff8000145c <sgr+0x30c>  // b.none
ffffffff80001400:	f9400fe0 	ldr	x0, [sp, #24]
ffffffff80001404:	39405000 	ldrb	w0, [x0, #20]
ffffffff80001408:	52000000 	eor	w0, w0, #0x1
ffffffff8000140c:	12001c00 	and	w0, w0, #0xff
ffffffff80001410:	12000000 	and	w0, w0, #0x1
ffffffff80001414:	7100001f 	cmp	w0, #0x0
ffffffff80001418:	54000120 	b.eq	ffffffff8000143c <sgr+0x2ec>  // b.none
ffffffff8000141c:	f9400fe0 	ldr	x0, [sp, #24]
ffffffff80001420:	f9408802 	ldr	x2, [x0, #272]
ffffffff80001424:	f9400fe0 	ldr	x0, [sp, #24]
ffffffff80001428:	f9402c00 	ldr	x0, [x0, #88]
ffffffff8000142c:	aa0003e1 	mov	x1, x0
ffffffff80001430:	f9400fe0 	ldr	x0, [sp, #24]
ffffffff80001434:	d63f0040 	blr	x2
ffffffff80001438:	140002a2 	b	ffffffff80001ec0 <sgr+0xd70>
ffffffff8000143c:	f9400fe0 	ldr	x0, [sp, #24]
ffffffff80001440:	f9408c02 	ldr	x2, [x0, #280]
ffffffff80001444:	f9400fe0 	ldr	x0, [sp, #24]
ffffffff80001448:	f9402c00 	ldr	x0, [x0, #88]
ffffffff8000144c:	aa0003e1 	mov	x1, x0
ffffffff80001450:	f9400fe0 	ldr	x0, [sp, #24]
ffffffff80001454:	d63f0040 	blr	x2
ffffffff80001458:	1400029a 	b	ffffffff80001ec0 <sgr+0xd70>
ffffffff8000145c:	f9400fe0 	ldr	x0, [sp, #24]
ffffffff80001460:	39405000 	ldrb	w0, [x0, #20]
ffffffff80001464:	52000000 	eor	w0, w0, #0x1
ffffffff80001468:	12001c00 	and	w0, w0, #0xff
ffffffff8000146c:	12000000 	and	w0, w0, #0x1
ffffffff80001470:	7100001f 	cmp	w0, #0x0
ffffffff80001474:	540000c0 	b.eq	ffffffff8000148c <sgr+0x33c>  // b.none
ffffffff80001478:	f9400fe0 	ldr	x0, [sp, #24]
ffffffff8000147c:	f940a001 	ldr	x1, [x0, #320]
ffffffff80001480:	f9400fe0 	ldr	x0, [sp, #24]
ffffffff80001484:	d63f0020 	blr	x1
ffffffff80001488:	1400028e 	b	ffffffff80001ec0 <sgr+0xd70>
ffffffff8000148c:	f9400fe0 	ldr	x0, [sp, #24]
ffffffff80001490:	f940a401 	ldr	x1, [x0, #328]
ffffffff80001494:	f9400fe0 	ldr	x0, [sp, #24]
ffffffff80001498:	d63f0020 	blr	x1
ffffffff8000149c:	14000289 	b	ffffffff80001ec0 <sgr+0xd70>
ffffffff800014a0:	f9400fe1 	ldr	x1, [sp, #24]
ffffffff800014a4:	f9401fe0 	ldr	x0, [sp, #56]
ffffffff800014a8:	91007000 	add	x0, x0, #0x1c
ffffffff800014ac:	d37ef400 	lsl	x0, x0, #2
ffffffff800014b0:	8b000020 	add	x0, x1, x0
ffffffff800014b4:	b9400800 	ldr	w0, [x0, #8]
ffffffff800014b8:	7100641f 	cmp	w0, #0x19
ffffffff800014bc:	540005e1 	b.ne	ffffffff80001578 <sgr+0x428>  // b.any
ffffffff800014c0:	f9400fe0 	ldr	x0, [sp, #24]
ffffffff800014c4:	39004c1f 	strb	wzr, [x0, #19]
ffffffff800014c8:	f9400fe0 	ldr	x0, [sp, #24]
ffffffff800014cc:	f9403000 	ldr	x0, [x0, #96]
ffffffff800014d0:	b100041f 	cmn	x0, #0x1
ffffffff800014d4:	54000300 	b.eq	ffffffff80001534 <sgr+0x3e4>  // b.none
ffffffff800014d8:	f9400fe0 	ldr	x0, [sp, #24]
ffffffff800014dc:	39405000 	ldrb	w0, [x0, #20]
ffffffff800014e0:	52000000 	eor	w0, w0, #0x1
ffffffff800014e4:	12001c00 	and	w0, w0, #0xff
ffffffff800014e8:	12000000 	and	w0, w0, #0x1
ffffffff800014ec:	7100001f 	cmp	w0, #0x0
ffffffff800014f0:	54000120 	b.eq	ffffffff80001514 <sgr+0x3c4>  // b.none
ffffffff800014f4:	f9400fe0 	ldr	x0, [sp, #24]
ffffffff800014f8:	f9408c02 	ldr	x2, [x0, #280]
ffffffff800014fc:	f9400fe0 	ldr	x0, [sp, #24]
ffffffff80001500:	f9403000 	ldr	x0, [x0, #96]
ffffffff80001504:	aa0003e1 	mov	x1, x0
ffffffff80001508:	f9400fe0 	ldr	x0, [sp, #24]
ffffffff8000150c:	d63f0040 	blr	x2
ffffffff80001510:	1400026c 	b	ffffffff80001ec0 <sgr+0xd70>
ffffffff80001514:	f9400fe0 	ldr	x0, [sp, #24]
ffffffff80001518:	f9408802 	ldr	x2, [x0, #272]
ffffffff8000151c:	f9400fe0 	ldr	x0, [sp, #24]
ffffffff80001520:	f9403000 	ldr	x0, [x0, #96]
ffffffff80001524:	aa0003e1 	mov	x1, x0
ffffffff80001528:	f9400fe0 	ldr	x0, [sp, #24]
ffffffff8000152c:	d63f0040 	blr	x2
ffffffff80001530:	14000264 	b	ffffffff80001ec0 <sgr+0xd70>
ffffffff80001534:	f9400fe0 	ldr	x0, [sp, #24]
ffffffff80001538:	39405000 	ldrb	w0, [x0, #20]
ffffffff8000153c:	52000000 	eor	w0, w0, #0x1
ffffffff80001540:	12001c00 	and	w0, w0, #0xff
ffffffff80001544:	12000000 	and	w0, w0, #0x1
ffffffff80001548:	7100001f 	cmp	w0, #0x0
ffffffff8000154c:	540000c0 	b.eq	ffffffff80001564 <sgr+0x414>  // b.none
ffffffff80001550:	f9400fe0 	ldr	x0, [sp, #24]
ffffffff80001554:	f940a401 	ldr	x1, [x0, #328]
ffffffff80001558:	f9400fe0 	ldr	x0, [sp, #24]
ffffffff8000155c:	d63f0020 	blr	x1
ffffffff80001560:	14000258 	b	ffffffff80001ec0 <sgr+0xd70>
ffffffff80001564:	f9400fe0 	ldr	x0, [sp, #24]
ffffffff80001568:	f940a001 	ldr	x1, [x0, #320]
ffffffff8000156c:	f9400fe0 	ldr	x0, [sp, #24]
ffffffff80001570:	d63f0020 	blr	x1
ffffffff80001574:	14000253 	b	ffffffff80001ec0 <sgr+0xd70>
ffffffff80001578:	f9400fe1 	ldr	x1, [sp, #24]
ffffffff8000157c:	f9401fe0 	ldr	x0, [sp, #56]
ffffffff80001580:	91007000 	add	x0, x0, #0x1c
ffffffff80001584:	d37ef400 	lsl	x0, x0, #2
ffffffff80001588:	8b000020 	add	x0, x1, x0
ffffffff8000158c:	b9400800 	ldr	w0, [x0, #8]
ffffffff80001590:	7100741f 	cmp	w0, #0x1d
ffffffff80001594:	54000a49 	b.ls	ffffffff800016dc <sgr+0x58c>  // b.plast
ffffffff80001598:	f9400fe1 	ldr	x1, [sp, #24]
ffffffff8000159c:	f9401fe0 	ldr	x0, [sp, #56]
ffffffff800015a0:	91007000 	add	x0, x0, #0x1c
ffffffff800015a4:	d37ef400 	lsl	x0, x0, #2
ffffffff800015a8:	8b000020 	add	x0, x1, x0
ffffffff800015ac:	b9400800 	ldr	w0, [x0, #8]
ffffffff800015b0:	7100941f 	cmp	w0, #0x25
ffffffff800015b4:	54000948 	b.hi	ffffffff800016dc <sgr+0x58c>  // b.pmore
ffffffff800015b8:	d28003c0 	mov	x0, #0x1e                  	// #30
ffffffff800015bc:	f9001be0 	str	x0, [sp, #48]
ffffffff800015c0:	f9400fe1 	ldr	x1, [sp, #24]
ffffffff800015c4:	f9401fe0 	ldr	x0, [sp, #56]
ffffffff800015c8:	91007000 	add	x0, x0, #0x1c
ffffffff800015cc:	d37ef400 	lsl	x0, x0, #2
ffffffff800015d0:	8b000020 	add	x0, x1, x0
ffffffff800015d4:	b9400800 	ldr	w0, [x0, #8]
ffffffff800015d8:	2a0003e1 	mov	w1, w0
ffffffff800015dc:	f9401be0 	ldr	x0, [sp, #48]
ffffffff800015e0:	cb000021 	sub	x1, x1, x0
ffffffff800015e4:	f9400fe0 	ldr	x0, [sp, #24]
ffffffff800015e8:	f9002c01 	str	x1, [x0, #88]
ffffffff800015ec:	f9400fe0 	ldr	x0, [sp, #24]
ffffffff800015f0:	39405000 	ldrb	w0, [x0, #20]
ffffffff800015f4:	12000000 	and	w0, w0, #0x1
ffffffff800015f8:	7100001f 	cmp	w0, #0x0
ffffffff800015fc:	54000b61 	b.ne	ffffffff80001768 <sgr+0x618>  // b.any
ffffffff80001600:	d503201f 	nop
ffffffff80001604:	14000002 	b	ffffffff8000160c <sgr+0x4bc>
ffffffff80001608:	d503201f 	nop
ffffffff8000160c:	f9400fe0 	ldr	x0, [sp, #24]
ffffffff80001610:	39404800 	ldrb	w0, [x0, #18]
ffffffff80001614:	12000000 	and	w0, w0, #0x1
ffffffff80001618:	7100001f 	cmp	w0, #0x0
ffffffff8000161c:	54000100 	b.eq	ffffffff8000163c <sgr+0x4ec>  // b.none
ffffffff80001620:	f9400fe0 	ldr	x0, [sp, #24]
ffffffff80001624:	39405000 	ldrb	w0, [x0, #20]
ffffffff80001628:	52000000 	eor	w0, w0, #0x1
ffffffff8000162c:	12001c00 	and	w0, w0, #0xff
ffffffff80001630:	12000000 	and	w0, w0, #0x1
ffffffff80001634:	7100001f 	cmp	w0, #0x0
ffffffff80001638:	54000161 	b.ne	ffffffff80001664 <sgr+0x514>  // b.any
ffffffff8000163c:	f9400fe0 	ldr	x0, [sp, #24]
ffffffff80001640:	39404c00 	ldrb	w0, [x0, #19]
ffffffff80001644:	12000000 	and	w0, w0, #0x1
ffffffff80001648:	7100001f 	cmp	w0, #0x0
ffffffff8000164c:	540002a0 	b.eq	ffffffff800016a0 <sgr+0x550>  // b.none
ffffffff80001650:	f9400fe0 	ldr	x0, [sp, #24]
ffffffff80001654:	39405000 	ldrb	w0, [x0, #20]
ffffffff80001658:	12000000 	and	w0, w0, #0x1
ffffffff8000165c:	7100001f 	cmp	w0, #0x0
ffffffff80001660:	54000200 	b.eq	ffffffff800016a0 <sgr+0x550>  // b.none
ffffffff80001664:	f9400fe0 	ldr	x0, [sp, #24]
ffffffff80001668:	f9409002 	ldr	x2, [x0, #288]
ffffffff8000166c:	f9400fe1 	ldr	x1, [sp, #24]
ffffffff80001670:	f9401fe0 	ldr	x0, [sp, #56]
ffffffff80001674:	91007000 	add	x0, x0, #0x1c
ffffffff80001678:	d37ef400 	lsl	x0, x0, #2
ffffffff8000167c:	8b000020 	add	x0, x1, x0
ffffffff80001680:	b9400800 	ldr	w0, [x0, #8]
ffffffff80001684:	2a0003e1 	mov	w1, w0
ffffffff80001688:	f9401be0 	ldr	x0, [sp, #48]
ffffffff8000168c:	cb000020 	sub	x0, x1, x0
ffffffff80001690:	aa0003e1 	mov	x1, x0
ffffffff80001694:	f9400fe0 	ldr	x0, [sp, #24]
ffffffff80001698:	d63f0040 	blr	x2
ffffffff8000169c:	14000209 	b	ffffffff80001ec0 <sgr+0xd70>
ffffffff800016a0:	f9400fe0 	ldr	x0, [sp, #24]
ffffffff800016a4:	f9408802 	ldr	x2, [x0, #272]
ffffffff800016a8:	f9400fe1 	ldr	x1, [sp, #24]
ffffffff800016ac:	f9401fe0 	ldr	x0, [sp, #56]
ffffffff800016b0:	91007000 	add	x0, x0, #0x1c
ffffffff800016b4:	d37ef400 	lsl	x0, x0, #2
ffffffff800016b8:	8b000020 	add	x0, x1, x0
ffffffff800016bc:	b9400800 	ldr	w0, [x0, #8]
ffffffff800016c0:	2a0003e1 	mov	w1, w0
ffffffff800016c4:	f9401be0 	ldr	x0, [sp, #48]
ffffffff800016c8:	cb000020 	sub	x0, x1, x0
ffffffff800016cc:	aa0003e1 	mov	x1, x0
ffffffff800016d0:	f9400fe0 	ldr	x0, [sp, #24]
ffffffff800016d4:	d63f0040 	blr	x2
ffffffff800016d8:	140001fa 	b	ffffffff80001ec0 <sgr+0xd70>
ffffffff800016dc:	f9400fe1 	ldr	x1, [sp, #24]
ffffffff800016e0:	f9401fe0 	ldr	x0, [sp, #56]
ffffffff800016e4:	91007000 	add	x0, x0, #0x1c
ffffffff800016e8:	d37ef400 	lsl	x0, x0, #2
ffffffff800016ec:	8b000020 	add	x0, x1, x0
ffffffff800016f0:	b9400800 	ldr	w0, [x0, #8]
ffffffff800016f4:	71009c1f 	cmp	w0, #0x27
ffffffff800016f8:	54000a29 	b.ls	ffffffff8000183c <sgr+0x6ec>  // b.plast
ffffffff800016fc:	f9400fe1 	ldr	x1, [sp, #24]
ffffffff80001700:	f9401fe0 	ldr	x0, [sp, #56]
ffffffff80001704:	91007000 	add	x0, x0, #0x1c
ffffffff80001708:	d37ef400 	lsl	x0, x0, #2
ffffffff8000170c:	8b000020 	add	x0, x1, x0
ffffffff80001710:	b9400800 	ldr	w0, [x0, #8]
ffffffff80001714:	7100bc1f 	cmp	w0, #0x2f
ffffffff80001718:	54000928 	b.hi	ffffffff8000183c <sgr+0x6ec>  // b.pmore
ffffffff8000171c:	d2800500 	mov	x0, #0x28                  	// #40
ffffffff80001720:	f9001be0 	str	x0, [sp, #48]
ffffffff80001724:	f9400fe1 	ldr	x1, [sp, #24]
ffffffff80001728:	f9401fe0 	ldr	x0, [sp, #56]
ffffffff8000172c:	91007000 	add	x0, x0, #0x1c
ffffffff80001730:	d37ef400 	lsl	x0, x0, #2
ffffffff80001734:	8b000020 	add	x0, x1, x0
ffffffff80001738:	b9400800 	ldr	w0, [x0, #8]
ffffffff8000173c:	2a0003e1 	mov	w1, w0
ffffffff80001740:	f9401be0 	ldr	x0, [sp, #48]
ffffffff80001744:	cb000021 	sub	x1, x1, x0
ffffffff80001748:	f9400fe0 	ldr	x0, [sp, #24]
ffffffff8000174c:	f9003001 	str	x1, [x0, #96]
ffffffff80001750:	f9400fe0 	ldr	x0, [sp, #24]
ffffffff80001754:	39405000 	ldrb	w0, [x0, #20]
ffffffff80001758:	12000000 	and	w0, w0, #0x1
ffffffff8000175c:	7100001f 	cmp	w0, #0x0
ffffffff80001760:	54fff541 	b.ne	ffffffff80001608 <sgr+0x4b8>  // b.any
ffffffff80001764:	14000002 	b	ffffffff8000176c <sgr+0x61c>
ffffffff80001768:	d503201f 	nop
ffffffff8000176c:	f9400fe0 	ldr	x0, [sp, #24]
ffffffff80001770:	39404800 	ldrb	w0, [x0, #18]
ffffffff80001774:	12000000 	and	w0, w0, #0x1
ffffffff80001778:	7100001f 	cmp	w0, #0x0
ffffffff8000177c:	540000c0 	b.eq	ffffffff80001794 <sgr+0x644>  // b.none
ffffffff80001780:	f9400fe0 	ldr	x0, [sp, #24]
ffffffff80001784:	39405000 	ldrb	w0, [x0, #20]
ffffffff80001788:	12000000 	and	w0, w0, #0x1
ffffffff8000178c:	7100001f 	cmp	w0, #0x0
ffffffff80001790:	540001a1 	b.ne	ffffffff800017c4 <sgr+0x674>  // b.any
ffffffff80001794:	f9400fe0 	ldr	x0, [sp, #24]
ffffffff80001798:	39404c00 	ldrb	w0, [x0, #19]
ffffffff8000179c:	12000000 	and	w0, w0, #0x1
ffffffff800017a0:	7100001f 	cmp	w0, #0x0
ffffffff800017a4:	540002e0 	b.eq	ffffffff80001800 <sgr+0x6b0>  // b.none
ffffffff800017a8:	f9400fe0 	ldr	x0, [sp, #24]
ffffffff800017ac:	39405000 	ldrb	w0, [x0, #20]
ffffffff800017b0:	52000000 	eor	w0, w0, #0x1
ffffffff800017b4:	12001c00 	and	w0, w0, #0xff
ffffffff800017b8:	12000000 	and	w0, w0, #0x1
ffffffff800017bc:	7100001f 	cmp	w0, #0x0
ffffffff800017c0:	54000200 	b.eq	ffffffff80001800 <sgr+0x6b0>  // b.none
ffffffff800017c4:	f9400fe0 	ldr	x0, [sp, #24]
ffffffff800017c8:	f9409402 	ldr	x2, [x0, #296]
ffffffff800017cc:	f9400fe1 	ldr	x1, [sp, #24]
ffffffff800017d0:	f9401fe0 	ldr	x0, [sp, #56]
ffffffff800017d4:	91007000 	add	x0, x0, #0x1c
ffffffff800017d8:	d37ef400 	lsl	x0, x0, #2
ffffffff800017dc:	8b000020 	add	x0, x1, x0
ffffffff800017e0:	b9400800 	ldr	w0, [x0, #8]
ffffffff800017e4:	2a0003e1 	mov	w1, w0
ffffffff800017e8:	f9401be0 	ldr	x0, [sp, #48]
ffffffff800017ec:	cb000020 	sub	x0, x1, x0
ffffffff800017f0:	aa0003e1 	mov	x1, x0
ffffffff800017f4:	f9400fe0 	ldr	x0, [sp, #24]
ffffffff800017f8:	d63f0040 	blr	x2
ffffffff800017fc:	140001b1 	b	ffffffff80001ec0 <sgr+0xd70>
ffffffff80001800:	f9400fe0 	ldr	x0, [sp, #24]
ffffffff80001804:	f9408c02 	ldr	x2, [x0, #280]
ffffffff80001808:	f9400fe1 	ldr	x1, [sp, #24]
ffffffff8000180c:	f9401fe0 	ldr	x0, [sp, #56]
ffffffff80001810:	91007000 	add	x0, x0, #0x1c
ffffffff80001814:	d37ef400 	lsl	x0, x0, #2
ffffffff80001818:	8b000020 	add	x0, x1, x0
ffffffff8000181c:	b9400800 	ldr	w0, [x0, #8]
ffffffff80001820:	2a0003e1 	mov	w1, w0
ffffffff80001824:	f9401be0 	ldr	x0, [sp, #48]
ffffffff80001828:	cb000020 	sub	x0, x1, x0
ffffffff8000182c:	aa0003e1 	mov	x1, x0
ffffffff80001830:	f9400fe0 	ldr	x0, [sp, #24]
ffffffff80001834:	d63f0040 	blr	x2
ffffffff80001838:	140001a2 	b	ffffffff80001ec0 <sgr+0xd70>
ffffffff8000183c:	f9400fe1 	ldr	x1, [sp, #24]
ffffffff80001840:	f9401fe0 	ldr	x0, [sp, #56]
ffffffff80001844:	91007000 	add	x0, x0, #0x1c
ffffffff80001848:	d37ef400 	lsl	x0, x0, #2
ffffffff8000184c:	8b000020 	add	x0, x1, x0
ffffffff80001850:	b9400800 	ldr	w0, [x0, #8]
ffffffff80001854:	7101641f 	cmp	w0, #0x59
ffffffff80001858:	540005a9 	b.ls	ffffffff8000190c <sgr+0x7bc>  // b.plast
ffffffff8000185c:	f9400fe1 	ldr	x1, [sp, #24]
ffffffff80001860:	f9401fe0 	ldr	x0, [sp, #56]
ffffffff80001864:	91007000 	add	x0, x0, #0x1c
ffffffff80001868:	d37ef400 	lsl	x0, x0, #2
ffffffff8000186c:	8b000020 	add	x0, x1, x0
ffffffff80001870:	b9400800 	ldr	w0, [x0, #8]
ffffffff80001874:	7101841f 	cmp	w0, #0x61
ffffffff80001878:	540004a8 	b.hi	ffffffff8000190c <sgr+0x7bc>  // b.pmore
ffffffff8000187c:	d2800b40 	mov	x0, #0x5a                  	// #90
ffffffff80001880:	f9001be0 	str	x0, [sp, #48]
ffffffff80001884:	f9400fe1 	ldr	x1, [sp, #24]
ffffffff80001888:	f9401fe0 	ldr	x0, [sp, #56]
ffffffff8000188c:	91007000 	add	x0, x0, #0x1c
ffffffff80001890:	d37ef400 	lsl	x0, x0, #2
ffffffff80001894:	8b000020 	add	x0, x1, x0
ffffffff80001898:	b9400800 	ldr	w0, [x0, #8]
ffffffff8000189c:	2a0003e1 	mov	w1, w0
ffffffff800018a0:	f9401be0 	ldr	x0, [sp, #48]
ffffffff800018a4:	cb000021 	sub	x1, x1, x0
ffffffff800018a8:	f9400fe0 	ldr	x0, [sp, #24]
ffffffff800018ac:	f9002c01 	str	x1, [x0, #88]
ffffffff800018b0:	f9400fe0 	ldr	x0, [sp, #24]
ffffffff800018b4:	39405000 	ldrb	w0, [x0, #20]
ffffffff800018b8:	12000000 	and	w0, w0, #0x1
ffffffff800018bc:	7100001f 	cmp	w0, #0x0
ffffffff800018c0:	540006c1 	b.ne	ffffffff80001998 <sgr+0x848>  // b.any
ffffffff800018c4:	d503201f 	nop
ffffffff800018c8:	14000002 	b	ffffffff800018d0 <sgr+0x780>
ffffffff800018cc:	d503201f 	nop
ffffffff800018d0:	f9400fe0 	ldr	x0, [sp, #24]
ffffffff800018d4:	f9409002 	ldr	x2, [x0, #288]
ffffffff800018d8:	f9400fe1 	ldr	x1, [sp, #24]
ffffffff800018dc:	f9401fe0 	ldr	x0, [sp, #56]
ffffffff800018e0:	91007000 	add	x0, x0, #0x1c
ffffffff800018e4:	d37ef400 	lsl	x0, x0, #2
ffffffff800018e8:	8b000020 	add	x0, x1, x0
ffffffff800018ec:	b9400800 	ldr	w0, [x0, #8]
ffffffff800018f0:	2a0003e1 	mov	w1, w0
ffffffff800018f4:	f9401be0 	ldr	x0, [sp, #48]
ffffffff800018f8:	cb000020 	sub	x0, x1, x0
ffffffff800018fc:	aa0003e1 	mov	x1, x0
ffffffff80001900:	f9400fe0 	ldr	x0, [sp, #24]
ffffffff80001904:	d63f0040 	blr	x2
ffffffff80001908:	1400016e 	b	ffffffff80001ec0 <sgr+0xd70>
ffffffff8000190c:	f9400fe1 	ldr	x1, [sp, #24]
ffffffff80001910:	f9401fe0 	ldr	x0, [sp, #56]
ffffffff80001914:	91007000 	add	x0, x0, #0x1c
ffffffff80001918:	d37ef400 	lsl	x0, x0, #2
ffffffff8000191c:	8b000020 	add	x0, x1, x0
ffffffff80001920:	b9400800 	ldr	w0, [x0, #8]
ffffffff80001924:	71018c1f 	cmp	w0, #0x63
ffffffff80001928:	54000589 	b.ls	ffffffff800019d8 <sgr+0x888>  // b.plast
ffffffff8000192c:	f9400fe1 	ldr	x1, [sp, #24]
ffffffff80001930:	f9401fe0 	ldr	x0, [sp, #56]
ffffffff80001934:	91007000 	add	x0, x0, #0x1c
ffffffff80001938:	d37ef400 	lsl	x0, x0, #2
ffffffff8000193c:	8b000020 	add	x0, x1, x0
ffffffff80001940:	b9400800 	ldr	w0, [x0, #8]
ffffffff80001944:	7101ac1f 	cmp	w0, #0x6b
ffffffff80001948:	54000488 	b.hi	ffffffff800019d8 <sgr+0x888>  // b.pmore
ffffffff8000194c:	d2800c80 	mov	x0, #0x64                  	// #100
ffffffff80001950:	f9001be0 	str	x0, [sp, #48]
ffffffff80001954:	f9400fe1 	ldr	x1, [sp, #24]
ffffffff80001958:	f9401fe0 	ldr	x0, [sp, #56]
ffffffff8000195c:	91007000 	add	x0, x0, #0x1c
ffffffff80001960:	d37ef400 	lsl	x0, x0, #2
ffffffff80001964:	8b000020 	add	x0, x1, x0
ffffffff80001968:	b9400800 	ldr	w0, [x0, #8]
ffffffff8000196c:	2a0003e1 	mov	w1, w0
ffffffff80001970:	f9401be0 	ldr	x0, [sp, #48]
ffffffff80001974:	cb000021 	sub	x1, x1, x0
ffffffff80001978:	f9400fe0 	ldr	x0, [sp, #24]
ffffffff8000197c:	f9003001 	str	x1, [x0, #96]
ffffffff80001980:	f9400fe0 	ldr	x0, [sp, #24]
ffffffff80001984:	39405000 	ldrb	w0, [x0, #20]
ffffffff80001988:	12000000 	and	w0, w0, #0x1
ffffffff8000198c:	7100001f 	cmp	w0, #0x0
ffffffff80001990:	54fff9e1 	b.ne	ffffffff800018cc <sgr+0x77c>  // b.any
ffffffff80001994:	14000002 	b	ffffffff8000199c <sgr+0x84c>
ffffffff80001998:	d503201f 	nop
ffffffff8000199c:	f9400fe0 	ldr	x0, [sp, #24]
ffffffff800019a0:	f9409402 	ldr	x2, [x0, #296]
ffffffff800019a4:	f9400fe1 	ldr	x1, [sp, #24]
ffffffff800019a8:	f9401fe0 	ldr	x0, [sp, #56]
ffffffff800019ac:	91007000 	add	x0, x0, #0x1c
ffffffff800019b0:	d37ef400 	lsl	x0, x0, #2
ffffffff800019b4:	8b000020 	add	x0, x1, x0
ffffffff800019b8:	b9400800 	ldr	w0, [x0, #8]
ffffffff800019bc:	2a0003e1 	mov	w1, w0
ffffffff800019c0:	f9401be0 	ldr	x0, [sp, #48]
ffffffff800019c4:	cb000020 	sub	x0, x1, x0
ffffffff800019c8:	aa0003e1 	mov	x1, x0
ffffffff800019cc:	f9400fe0 	ldr	x0, [sp, #24]
ffffffff800019d0:	d63f0040 	blr	x2
ffffffff800019d4:	1400013b 	b	ffffffff80001ec0 <sgr+0xd70>
ffffffff800019d8:	f9400fe1 	ldr	x1, [sp, #24]
ffffffff800019dc:	f9401fe0 	ldr	x0, [sp, #56]
ffffffff800019e0:	91007000 	add	x0, x0, #0x1c
ffffffff800019e4:	d37ef400 	lsl	x0, x0, #2
ffffffff800019e8:	8b000020 	add	x0, x1, x0
ffffffff800019ec:	b9400800 	ldr	w0, [x0, #8]
ffffffff800019f0:	71009c1f 	cmp	w0, #0x27
ffffffff800019f4:	540004e1 	b.ne	ffffffff80001a90 <sgr+0x940>  // b.any
ffffffff800019f8:	f9400fe0 	ldr	x0, [sp, #24]
ffffffff800019fc:	92800001 	mov	x1, #0xffffffffffffffff    	// #-1
ffffffff80001a00:	f9002c01 	str	x1, [x0, #88]
ffffffff80001a04:	f9400fe0 	ldr	x0, [sp, #24]
ffffffff80001a08:	39405000 	ldrb	w0, [x0, #20]
ffffffff80001a0c:	12000000 	and	w0, w0, #0x1
ffffffff80001a10:	7100001f 	cmp	w0, #0x0
ffffffff80001a14:	540000a0 	b.eq	ffffffff80001a28 <sgr+0x8d8>  // b.none
ffffffff80001a18:	f9400fe0 	ldr	x0, [sp, #24]
ffffffff80001a1c:	f940bc01 	ldr	x1, [x0, #376]
ffffffff80001a20:	f9400fe0 	ldr	x0, [sp, #24]
ffffffff80001a24:	d63f0020 	blr	x1
ffffffff80001a28:	f9400fe0 	ldr	x0, [sp, #24]
ffffffff80001a2c:	39404800 	ldrb	w0, [x0, #18]
ffffffff80001a30:	52000000 	eor	w0, w0, #0x1
ffffffff80001a34:	12001c00 	and	w0, w0, #0xff
ffffffff80001a38:	12000000 	and	w0, w0, #0x1
ffffffff80001a3c:	7100001f 	cmp	w0, #0x0
ffffffff80001a40:	540000c0 	b.eq	ffffffff80001a58 <sgr+0x908>  // b.none
ffffffff80001a44:	f9400fe0 	ldr	x0, [sp, #24]
ffffffff80001a48:	f940a001 	ldr	x1, [x0, #320]
ffffffff80001a4c:	f9400fe0 	ldr	x0, [sp, #24]
ffffffff80001a50:	d63f0020 	blr	x1
ffffffff80001a54:	14000005 	b	ffffffff80001a68 <sgr+0x918>
ffffffff80001a58:	f9400fe0 	ldr	x0, [sp, #24]
ffffffff80001a5c:	f940a801 	ldr	x1, [x0, #336]
ffffffff80001a60:	f9400fe0 	ldr	x0, [sp, #24]
ffffffff80001a64:	d63f0020 	blr	x1
ffffffff80001a68:	f9400fe0 	ldr	x0, [sp, #24]
ffffffff80001a6c:	39405000 	ldrb	w0, [x0, #20]
ffffffff80001a70:	12000000 	and	w0, w0, #0x1
ffffffff80001a74:	7100001f 	cmp	w0, #0x0
ffffffff80001a78:	54002160 	b.eq	ffffffff80001ea4 <sgr+0xd54>  // b.none
ffffffff80001a7c:	f9400fe0 	ldr	x0, [sp, #24]
ffffffff80001a80:	f940bc01 	ldr	x1, [x0, #376]
ffffffff80001a84:	f9400fe0 	ldr	x0, [sp, #24]
ffffffff80001a88:	d63f0020 	blr	x1
ffffffff80001a8c:	14000106 	b	ffffffff80001ea4 <sgr+0xd54>
ffffffff80001a90:	f9400fe1 	ldr	x1, [sp, #24]
ffffffff80001a94:	f9401fe0 	ldr	x0, [sp, #56]
ffffffff80001a98:	91007000 	add	x0, x0, #0x1c
ffffffff80001a9c:	d37ef400 	lsl	x0, x0, #2
ffffffff80001aa0:	8b000020 	add	x0, x1, x0
ffffffff80001aa4:	b9400800 	ldr	w0, [x0, #8]
ffffffff80001aa8:	7100c41f 	cmp	w0, #0x31
ffffffff80001aac:	540004e1 	b.ne	ffffffff80001b48 <sgr+0x9f8>  // b.any
ffffffff80001ab0:	f9400fe0 	ldr	x0, [sp, #24]
ffffffff80001ab4:	92800001 	mov	x1, #0xffffffffffffffff    	// #-1
ffffffff80001ab8:	f9003001 	str	x1, [x0, #96]
ffffffff80001abc:	f9400fe0 	ldr	x0, [sp, #24]
ffffffff80001ac0:	39405000 	ldrb	w0, [x0, #20]
ffffffff80001ac4:	12000000 	and	w0, w0, #0x1
ffffffff80001ac8:	7100001f 	cmp	w0, #0x0
ffffffff80001acc:	540000a0 	b.eq	ffffffff80001ae0 <sgr+0x990>  // b.none
ffffffff80001ad0:	f9400fe0 	ldr	x0, [sp, #24]
ffffffff80001ad4:	f940bc01 	ldr	x1, [x0, #376]
ffffffff80001ad8:	f9400fe0 	ldr	x0, [sp, #24]
ffffffff80001adc:	d63f0020 	blr	x1
ffffffff80001ae0:	f9400fe0 	ldr	x0, [sp, #24]
ffffffff80001ae4:	39404c00 	ldrb	w0, [x0, #19]
ffffffff80001ae8:	52000000 	eor	w0, w0, #0x1
ffffffff80001aec:	12001c00 	and	w0, w0, #0xff
ffffffff80001af0:	12000000 	and	w0, w0, #0x1
ffffffff80001af4:	7100001f 	cmp	w0, #0x0
ffffffff80001af8:	540000c0 	b.eq	ffffffff80001b10 <sgr+0x9c0>  // b.none
ffffffff80001afc:	f9400fe0 	ldr	x0, [sp, #24]
ffffffff80001b00:	f940a401 	ldr	x1, [x0, #328]
ffffffff80001b04:	f9400fe0 	ldr	x0, [sp, #24]
ffffffff80001b08:	d63f0020 	blr	x1
ffffffff80001b0c:	14000005 	b	ffffffff80001b20 <sgr+0x9d0>
ffffffff80001b10:	f9400fe0 	ldr	x0, [sp, #24]
ffffffff80001b14:	f940ac01 	ldr	x1, [x0, #344]
ffffffff80001b18:	f9400fe0 	ldr	x0, [sp, #24]
ffffffff80001b1c:	d63f0020 	blr	x1
ffffffff80001b20:	f9400fe0 	ldr	x0, [sp, #24]
ffffffff80001b24:	39405000 	ldrb	w0, [x0, #20]
ffffffff80001b28:	12000000 	and	w0, w0, #0x1
ffffffff80001b2c:	7100001f 	cmp	w0, #0x0
ffffffff80001b30:	54001be0 	b.eq	ffffffff80001eac <sgr+0xd5c>  // b.none
ffffffff80001b34:	f9400fe0 	ldr	x0, [sp, #24]
ffffffff80001b38:	f940bc01 	ldr	x1, [x0, #376]
ffffffff80001b3c:	f9400fe0 	ldr	x0, [sp, #24]
ffffffff80001b40:	d63f0020 	blr	x1
ffffffff80001b44:	140000da 	b	ffffffff80001eac <sgr+0xd5c>
ffffffff80001b48:	f9400fe1 	ldr	x1, [sp, #24]
ffffffff80001b4c:	f9401fe0 	ldr	x0, [sp, #56]
ffffffff80001b50:	91007000 	add	x0, x0, #0x1c
ffffffff80001b54:	d37ef400 	lsl	x0, x0, #2
ffffffff80001b58:	8b000020 	add	x0, x1, x0
ffffffff80001b5c:	b9400800 	ldr	w0, [x0, #8]
ffffffff80001b60:	71001c1f 	cmp	w0, #0x7
ffffffff80001b64:	54000201 	b.ne	ffffffff80001ba4 <sgr+0xa54>  // b.any
ffffffff80001b68:	f9400fe0 	ldr	x0, [sp, #24]
ffffffff80001b6c:	39405000 	ldrb	w0, [x0, #20]
ffffffff80001b70:	52000000 	eor	w0, w0, #0x1
ffffffff80001b74:	12001c00 	and	w0, w0, #0xff
ffffffff80001b78:	12000000 	and	w0, w0, #0x1
ffffffff80001b7c:	7100001f 	cmp	w0, #0x0
ffffffff80001b80:	540019a0 	b.eq	ffffffff80001eb4 <sgr+0xd64>  // b.none
ffffffff80001b84:	f9400fe0 	ldr	x0, [sp, #24]
ffffffff80001b88:	52800021 	mov	w1, #0x1                   	// #1
ffffffff80001b8c:	39005001 	strb	w1, [x0, #20]
ffffffff80001b90:	f9400fe0 	ldr	x0, [sp, #24]
ffffffff80001b94:	f940bc01 	ldr	x1, [x0, #376]
ffffffff80001b98:	f9400fe0 	ldr	x0, [sp, #24]
ffffffff80001b9c:	d63f0020 	blr	x1
ffffffff80001ba0:	140000c5 	b	ffffffff80001eb4 <sgr+0xd64>
ffffffff80001ba4:	f9400fe1 	ldr	x1, [sp, #24]
ffffffff80001ba8:	f9401fe0 	ldr	x0, [sp, #56]
ffffffff80001bac:	91007000 	add	x0, x0, #0x1c
ffffffff80001bb0:	d37ef400 	lsl	x0, x0, #2
ffffffff80001bb4:	8b000020 	add	x0, x1, x0
ffffffff80001bb8:	b9400800 	ldr	w0, [x0, #8]
ffffffff80001bbc:	71006c1f 	cmp	w0, #0x1b
ffffffff80001bc0:	540001a1 	b.ne	ffffffff80001bf4 <sgr+0xaa4>  // b.any
ffffffff80001bc4:	f9400fe0 	ldr	x0, [sp, #24]
ffffffff80001bc8:	39405000 	ldrb	w0, [x0, #20]
ffffffff80001bcc:	12000000 	and	w0, w0, #0x1
ffffffff80001bd0:	7100001f 	cmp	w0, #0x0
ffffffff80001bd4:	54001740 	b.eq	ffffffff80001ebc <sgr+0xd6c>  // b.none
ffffffff80001bd8:	f9400fe0 	ldr	x0, [sp, #24]
ffffffff80001bdc:	3900501f 	strb	wzr, [x0, #20]
ffffffff80001be0:	f9400fe0 	ldr	x0, [sp, #24]
ffffffff80001be4:	f940bc01 	ldr	x1, [x0, #376]
ffffffff80001be8:	f9400fe0 	ldr	x0, [sp, #24]
ffffffff80001bec:	d63f0020 	blr	x1
ffffffff80001bf0:	140000b3 	b	ffffffff80001ebc <sgr+0xd6c>
ffffffff80001bf4:	f9400fe1 	ldr	x1, [sp, #24]
ffffffff80001bf8:	f9401fe0 	ldr	x0, [sp, #56]
ffffffff80001bfc:	91007000 	add	x0, x0, #0x1c
ffffffff80001c00:	d37ef400 	lsl	x0, x0, #2
ffffffff80001c04:	8b000020 	add	x0, x1, x0
ffffffff80001c08:	b9400800 	ldr	w0, [x0, #8]
ffffffff80001c0c:	7100981f 	cmp	w0, #0x26
ffffffff80001c10:	54000120 	b.eq	ffffffff80001c34 <sgr+0xae4>  // b.none
ffffffff80001c14:	f9400fe1 	ldr	x1, [sp, #24]
ffffffff80001c18:	f9401fe0 	ldr	x0, [sp, #56]
ffffffff80001c1c:	91007000 	add	x0, x0, #0x1c
ffffffff80001c20:	d37ef400 	lsl	x0, x0, #2
ffffffff80001c24:	8b000020 	add	x0, x1, x0
ffffffff80001c28:	b9400800 	ldr	w0, [x0, #8]
ffffffff80001c2c:	7100c01f 	cmp	w0, #0x30
ffffffff80001c30:	54001481 	b.ne	ffffffff80001ec0 <sgr+0xd70>  // b.any
ffffffff80001c34:	f9400fe1 	ldr	x1, [sp, #24]
ffffffff80001c38:	f9401fe0 	ldr	x0, [sp, #56]
ffffffff80001c3c:	91007000 	add	x0, x0, #0x1c
ffffffff80001c40:	d37ef400 	lsl	x0, x0, #2
ffffffff80001c44:	8b000020 	add	x0, x1, x0
ffffffff80001c48:	b9400800 	ldr	w0, [x0, #8]
ffffffff80001c4c:	7100981f 	cmp	w0, #0x26
ffffffff80001c50:	1a9f17e0 	cset	w0, eq	// eq = none
ffffffff80001c54:	3900bfe0 	strb	w0, [sp, #47]
ffffffff80001c58:	f9401fe0 	ldr	x0, [sp, #56]
ffffffff80001c5c:	91000400 	add	x0, x0, #0x1
ffffffff80001c60:	f9001fe0 	str	x0, [sp, #56]
ffffffff80001c64:	f9400fe0 	ldr	x0, [sp, #24]
ffffffff80001c68:	f9402000 	ldr	x0, [x0, #64]
ffffffff80001c6c:	f9401fe1 	ldr	x1, [sp, #56]
ffffffff80001c70:	eb00003f 	cmp	x1, x0
ffffffff80001c74:	540013c2 	b.cs	ffffffff80001eec <sgr+0xd9c>  // b.hs, b.nlast
ffffffff80001c78:	f9400fe1 	ldr	x1, [sp, #24]
ffffffff80001c7c:	f9401fe0 	ldr	x0, [sp, #56]
ffffffff80001c80:	91007000 	add	x0, x0, #0x1c
ffffffff80001c84:	d37ef400 	lsl	x0, x0, #2
ffffffff80001c88:	8b000020 	add	x0, x1, x0
ffffffff80001c8c:	b9400800 	ldr	w0, [x0, #8]
ffffffff80001c90:	7100081f 	cmp	w0, #0x2
ffffffff80001c94:	54000080 	b.eq	ffffffff80001ca4 <sgr+0xb54>  // b.none
ffffffff80001c98:	7100141f 	cmp	w0, #0x5
ffffffff80001c9c:	54000720 	b.eq	ffffffff80001d80 <sgr+0xc30>  // b.none
ffffffff80001ca0:	14000088 	b	ffffffff80001ec0 <sgr+0xd70>
ffffffff80001ca4:	f9401fe0 	ldr	x0, [sp, #56]
ffffffff80001ca8:	91000c01 	add	x1, x0, #0x3
ffffffff80001cac:	f9400fe0 	ldr	x0, [sp, #24]
ffffffff80001cb0:	f9402000 	ldr	x0, [x0, #64]
ffffffff80001cb4:	eb00003f 	cmp	x1, x0
ffffffff80001cb8:	540011e2 	b.cs	ffffffff80001ef4 <sgr+0xda4>  // b.hs, b.nlast
ffffffff80001cbc:	b90023ff 	str	wzr, [sp, #32]
ffffffff80001cc0:	f9401fe0 	ldr	x0, [sp, #56]
ffffffff80001cc4:	91000400 	add	x0, x0, #0x1
ffffffff80001cc8:	f9400fe1 	ldr	x1, [sp, #24]
ffffffff80001ccc:	91007000 	add	x0, x0, #0x1c
ffffffff80001cd0:	d37ef400 	lsl	x0, x0, #2
ffffffff80001cd4:	8b000020 	add	x0, x1, x0
ffffffff80001cd8:	b9400800 	ldr	w0, [x0, #8]
ffffffff80001cdc:	53103c00 	lsl	w0, w0, #16
ffffffff80001ce0:	b94023e1 	ldr	w1, [sp, #32]
ffffffff80001ce4:	2a000020 	orr	w0, w1, w0
ffffffff80001ce8:	b90023e0 	str	w0, [sp, #32]
ffffffff80001cec:	f9401fe0 	ldr	x0, [sp, #56]
ffffffff80001cf0:	91000800 	add	x0, x0, #0x2
ffffffff80001cf4:	f9400fe1 	ldr	x1, [sp, #24]
ffffffff80001cf8:	91007000 	add	x0, x0, #0x1c
ffffffff80001cfc:	d37ef400 	lsl	x0, x0, #2
ffffffff80001d00:	8b000020 	add	x0, x1, x0
ffffffff80001d04:	b9400800 	ldr	w0, [x0, #8]
ffffffff80001d08:	53185c00 	lsl	w0, w0, #8
ffffffff80001d0c:	b94023e1 	ldr	w1, [sp, #32]
ffffffff80001d10:	2a000020 	orr	w0, w1, w0
ffffffff80001d14:	b90023e0 	str	w0, [sp, #32]
ffffffff80001d18:	f9401fe0 	ldr	x0, [sp, #56]
ffffffff80001d1c:	91000c00 	add	x0, x0, #0x3
ffffffff80001d20:	f9400fe1 	ldr	x1, [sp, #24]
ffffffff80001d24:	91007000 	add	x0, x0, #0x1c
ffffffff80001d28:	d37ef400 	lsl	x0, x0, #2
ffffffff80001d2c:	8b000020 	add	x0, x1, x0
ffffffff80001d30:	b9400800 	ldr	w0, [x0, #8]
ffffffff80001d34:	b94023e1 	ldr	w1, [sp, #32]
ffffffff80001d38:	2a000020 	orr	w0, w1, w0
ffffffff80001d3c:	b90023e0 	str	w0, [sp, #32]
ffffffff80001d40:	f9401fe0 	ldr	x0, [sp, #56]
ffffffff80001d44:	91000c00 	add	x0, x0, #0x3
ffffffff80001d48:	f9001fe0 	str	x0, [sp, #56]
ffffffff80001d4c:	3940bfe0 	ldrb	w0, [sp, #47]
ffffffff80001d50:	12000000 	and	w0, w0, #0x1
ffffffff80001d54:	7100001f 	cmp	w0, #0x0
ffffffff80001d58:	54000080 	b.eq	ffffffff80001d68 <sgr+0xc18>  // b.none
ffffffff80001d5c:	f9400fe0 	ldr	x0, [sp, #24]
ffffffff80001d60:	f9409802 	ldr	x2, [x0, #304]
ffffffff80001d64:	14000003 	b	ffffffff80001d70 <sgr+0xc20>
ffffffff80001d68:	f9400fe0 	ldr	x0, [sp, #24]
ffffffff80001d6c:	f9409c02 	ldr	x2, [x0, #312]
ffffffff80001d70:	b94023e1 	ldr	w1, [sp, #32]
ffffffff80001d74:	f9400fe0 	ldr	x0, [sp, #24]
ffffffff80001d78:	d63f0040 	blr	x2
ffffffff80001d7c:	14000051 	b	ffffffff80001ec0 <sgr+0xd70>
ffffffff80001d80:	f9401fe0 	ldr	x0, [sp, #56]
ffffffff80001d84:	91000401 	add	x1, x0, #0x1
ffffffff80001d88:	f9400fe0 	ldr	x0, [sp, #24]
ffffffff80001d8c:	f9402000 	ldr	x0, [x0, #64]
ffffffff80001d90:	eb00003f 	cmp	x1, x0
ffffffff80001d94:	54000b42 	b.cs	ffffffff80001efc <sgr+0xdac>  // b.hs, b.nlast
ffffffff80001d98:	f9401fe0 	ldr	x0, [sp, #56]
ffffffff80001d9c:	91000400 	add	x0, x0, #0x1
ffffffff80001da0:	f9400fe1 	ldr	x1, [sp, #24]
ffffffff80001da4:	91007000 	add	x0, x0, #0x1c
ffffffff80001da8:	d37ef400 	lsl	x0, x0, #2
ffffffff80001dac:	8b000020 	add	x0, x1, x0
ffffffff80001db0:	b9400800 	ldr	w0, [x0, #8]
ffffffff80001db4:	b9002be0 	str	w0, [sp, #40]
ffffffff80001db8:	f9401fe0 	ldr	x0, [sp, #56]
ffffffff80001dbc:	91000400 	add	x0, x0, #0x1
ffffffff80001dc0:	f9001fe0 	str	x0, [sp, #56]
ffffffff80001dc4:	b9402be0 	ldr	w0, [sp, #40]
ffffffff80001dc8:	71001c1f 	cmp	w0, #0x7
ffffffff80001dcc:	540001e8 	b.hi	ffffffff80001e08 <sgr+0xcb8>  // b.pmore
ffffffff80001dd0:	3940bfe0 	ldrb	w0, [sp, #47]
ffffffff80001dd4:	12000000 	and	w0, w0, #0x1
ffffffff80001dd8:	7100001f 	cmp	w0, #0x0
ffffffff80001ddc:	54000080 	b.eq	ffffffff80001dec <sgr+0xc9c>  // b.none
ffffffff80001de0:	f9400fe0 	ldr	x0, [sp, #24]
ffffffff80001de4:	f9408802 	ldr	x2, [x0, #272]
ffffffff80001de8:	14000003 	b	ffffffff80001df4 <sgr+0xca4>
ffffffff80001dec:	f9400fe0 	ldr	x0, [sp, #24]
ffffffff80001df0:	f9408c02 	ldr	x2, [x0, #280]
ffffffff80001df4:	b9402be0 	ldr	w0, [sp, #40]
ffffffff80001df8:	aa0003e1 	mov	x1, x0
ffffffff80001dfc:	f9400fe0 	ldr	x0, [sp, #24]
ffffffff80001e00:	d63f0040 	blr	x2
ffffffff80001e04:	1400002f 	b	ffffffff80001ec0 <sgr+0xd70>
ffffffff80001e08:	b9402be0 	ldr	w0, [sp, #40]
ffffffff80001e0c:	71003c1f 	cmp	w0, #0xf
ffffffff80001e10:	54000228 	b.hi	ffffffff80001e54 <sgr+0xd04>  // b.pmore
ffffffff80001e14:	3940bfe0 	ldrb	w0, [sp, #47]
ffffffff80001e18:	12000000 	and	w0, w0, #0x1
ffffffff80001e1c:	7100001f 	cmp	w0, #0x0
ffffffff80001e20:	54000080 	b.eq	ffffffff80001e30 <sgr+0xce0>  // b.none
ffffffff80001e24:	f9400fe0 	ldr	x0, [sp, #24]
ffffffff80001e28:	f9409002 	ldr	x2, [x0, #288]
ffffffff80001e2c:	14000003 	b	ffffffff80001e38 <sgr+0xce8>
ffffffff80001e30:	f9400fe0 	ldr	x0, [sp, #24]
ffffffff80001e34:	f9409402 	ldr	x2, [x0, #296]
ffffffff80001e38:	b9402be0 	ldr	w0, [sp, #40]
ffffffff80001e3c:	51002000 	sub	w0, w0, #0x8
ffffffff80001e40:	2a0003e0 	mov	w0, w0
ffffffff80001e44:	aa0003e1 	mov	x1, x0
ffffffff80001e48:	f9400fe0 	ldr	x0, [sp, #24]
ffffffff80001e4c:	d63f0040 	blr	x2
ffffffff80001e50:	1400001c 	b	ffffffff80001ec0 <sgr+0xd70>
ffffffff80001e54:	b9402be0 	ldr	w0, [sp, #40]
ffffffff80001e58:	51004001 	sub	w1, w0, #0x10
ffffffff80001e5c:	f00000a0 	adrp	x0, ffffffff80018000 <_exc_lower_32_serror+0x10080>
ffffffff80001e60:	91068000 	add	x0, x0, #0x1a0
ffffffff80001e64:	2a0103e1 	mov	w1, w1
ffffffff80001e68:	b8617800 	ldr	w0, [x0, x1, lsl #2]
ffffffff80001e6c:	b90027e0 	str	w0, [sp, #36]
ffffffff80001e70:	3940bfe0 	ldrb	w0, [sp, #47]
ffffffff80001e74:	12000000 	and	w0, w0, #0x1
ffffffff80001e78:	7100001f 	cmp	w0, #0x0
ffffffff80001e7c:	54000080 	b.eq	ffffffff80001e8c <sgr+0xd3c>  // b.none
ffffffff80001e80:	f9400fe0 	ldr	x0, [sp, #24]
ffffffff80001e84:	f9409802 	ldr	x2, [x0, #304]
ffffffff80001e88:	14000003 	b	ffffffff80001e94 <sgr+0xd44>
ffffffff80001e8c:	f9400fe0 	ldr	x0, [sp, #24]
ffffffff80001e90:	f9409c02 	ldr	x2, [x0, #312]
ffffffff80001e94:	b94027e1 	ldr	w1, [sp, #36]
ffffffff80001e98:	f9400fe0 	ldr	x0, [sp, #24]
ffffffff80001e9c:	d63f0040 	blr	x2
ffffffff80001ea0:	14000008 	b	ffffffff80001ec0 <sgr+0xd70>
ffffffff80001ea4:	d503201f 	nop
ffffffff80001ea8:	14000006 	b	ffffffff80001ec0 <sgr+0xd70>
ffffffff80001eac:	d503201f 	nop
ffffffff80001eb0:	14000004 	b	ffffffff80001ec0 <sgr+0xd70>
ffffffff80001eb4:	d503201f 	nop
ffffffff80001eb8:	14000002 	b	ffffffff80001ec0 <sgr+0xd70>
ffffffff80001ebc:	d503201f 	nop
ffffffff80001ec0:	f9401fe0 	ldr	x0, [sp, #56]
ffffffff80001ec4:	91000400 	add	x0, x0, #0x1
ffffffff80001ec8:	f9001fe0 	str	x0, [sp, #56]
ffffffff80001ecc:	14000002 	b	ffffffff80001ed4 <sgr+0xd84>
ffffffff80001ed0:	d503201f 	nop
ffffffff80001ed4:	f9400fe0 	ldr	x0, [sp, #24]
ffffffff80001ed8:	f9402000 	ldr	x0, [x0, #64]
ffffffff80001edc:	f9401fe1 	ldr	x1, [sp, #56]
ffffffff80001ee0:	eb00003f 	cmp	x1, x0
ffffffff80001ee4:	54ff9483 	b.cc	ffffffff80001174 <sgr+0x24>  // b.lo, b.ul, b.last
ffffffff80001ee8:	14000006 	b	ffffffff80001f00 <sgr+0xdb0>
ffffffff80001eec:	d503201f 	nop
ffffffff80001ef0:	14000004 	b	ffffffff80001f00 <sgr+0xdb0>
ffffffff80001ef4:	d503201f 	nop
ffffffff80001ef8:	14000002 	b	ffffffff80001f00 <sgr+0xdb0>
ffffffff80001efc:	d503201f 	nop
ffffffff80001f00:	d503201f 	nop
ffffffff80001f04:	a8c47bfd 	ldp	x29, x30, [sp], #64
ffffffff80001f08:	d65f03c0 	ret

ffffffff80001f0c <dec_private_parse>:
ffffffff80001f0c:	a9bd7bfd 	stp	x29, x30, [sp, #-48]!
ffffffff80001f10:	910003fd 	mov	x29, sp
ffffffff80001f14:	f9000fe0 	str	x0, [sp, #24]
ffffffff80001f18:	39005fe1 	strb	w1, [sp, #23]
ffffffff80001f1c:	f9400fe0 	ldr	x0, [sp, #24]
ffffffff80001f20:	3900541f 	strb	wzr, [x0, #21]
ffffffff80001f24:	f9400fe0 	ldr	x0, [sp, #24]
ffffffff80001f28:	f9402000 	ldr	x0, [x0, #64]
ffffffff80001f2c:	f100001f 	cmp	x0, #0x0
ffffffff80001f30:	540005c0 	b.eq	ffffffff80001fe8 <dec_private_parse+0xdc>  // b.none
ffffffff80001f34:	39405fe0 	ldrb	w0, [sp, #23]
ffffffff80001f38:	7101a01f 	cmp	w0, #0x68
ffffffff80001f3c:	54000080 	b.eq	ffffffff80001f4c <dec_private_parse+0x40>  // b.none
ffffffff80001f40:	7101b01f 	cmp	w0, #0x6c
ffffffff80001f44:	540000a0 	b.eq	ffffffff80001f58 <dec_private_parse+0x4c>  // b.none
ffffffff80001f48:	14000029 	b	ffffffff80001fec <dec_private_parse+0xe0>
ffffffff80001f4c:	52800020 	mov	w0, #0x1                   	// #1
ffffffff80001f50:	3900bfe0 	strb	w0, [sp, #47]
ffffffff80001f54:	14000003 	b	ffffffff80001f60 <dec_private_parse+0x54>
ffffffff80001f58:	3900bfff 	strb	wzr, [sp, #47]
ffffffff80001f5c:	d503201f 	nop
ffffffff80001f60:	f9400fe0 	ldr	x0, [sp, #24]
ffffffff80001f64:	b9407800 	ldr	w0, [x0, #120]
ffffffff80001f68:	7100641f 	cmp	w0, #0x19
ffffffff80001f6c:	54000181 	b.ne	ffffffff80001f9c <dec_private_parse+0x90>  // b.any
ffffffff80001f70:	3940bfe0 	ldrb	w0, [sp, #47]
ffffffff80001f74:	12000000 	and	w0, w0, #0x1
ffffffff80001f78:	7100001f 	cmp	w0, #0x0
ffffffff80001f7c:	540000a0 	b.eq	ffffffff80001f90 <dec_private_parse+0x84>  // b.none
ffffffff80001f80:	f9400fe0 	ldr	x0, [sp, #24]
ffffffff80001f84:	52800021 	mov	w1, #0x1                   	// #1
ffffffff80001f88:	39002401 	strb	w1, [x0, #9]
ffffffff80001f8c:	14000018 	b	ffffffff80001fec <dec_private_parse+0xe0>
ffffffff80001f90:	f9400fe0 	ldr	x0, [sp, #24]
ffffffff80001f94:	3900241f 	strb	wzr, [x0, #9]
ffffffff80001f98:	14000015 	b	ffffffff80001fec <dec_private_parse+0xe0>
ffffffff80001f9c:	f9400fe0 	ldr	x0, [sp, #24]
ffffffff80001fa0:	f940d400 	ldr	x0, [x0, #424]
ffffffff80001fa4:	f100001f 	cmp	x0, #0x0
ffffffff80001fa8:	54000220 	b.eq	ffffffff80001fec <dec_private_parse+0xe0>  // b.none
ffffffff80001fac:	f9400fe0 	ldr	x0, [sp, #24]
ffffffff80001fb0:	f940d405 	ldr	x5, [x0, #424]
ffffffff80001fb4:	f9400fe0 	ldr	x0, [sp, #24]
ffffffff80001fb8:	f9402001 	ldr	x1, [x0, #64]
ffffffff80001fbc:	f9400fe0 	ldr	x0, [sp, #24]
ffffffff80001fc0:	9101e000 	add	x0, x0, #0x78
ffffffff80001fc4:	aa0003e2 	mov	x2, x0
ffffffff80001fc8:	39405fe0 	ldrb	w0, [sp, #23]
ffffffff80001fcc:	aa0003e4 	mov	x4, x0
ffffffff80001fd0:	aa0203e3 	mov	x3, x2
ffffffff80001fd4:	aa0103e2 	mov	x2, x1
ffffffff80001fd8:	d2800141 	mov	x1, #0xa                   	// #10
ffffffff80001fdc:	f9400fe0 	ldr	x0, [sp, #24]
ffffffff80001fe0:	d63f00a0 	blr	x5
ffffffff80001fe4:	14000002 	b	ffffffff80001fec <dec_private_parse+0xe0>
ffffffff80001fe8:	d503201f 	nop
ffffffff80001fec:	a8c37bfd 	ldp	x29, x30, [sp], #48
ffffffff80001ff0:	d65f03c0 	ret

ffffffff80001ff4 <linux_private_parse>:
ffffffff80001ff4:	a9be7bfd 	stp	x29, x30, [sp, #-32]!
ffffffff80001ff8:	910003fd 	mov	x29, sp
ffffffff80001ffc:	f9000fe0 	str	x0, [sp, #24]
ffffffff80002000:	f9400fe0 	ldr	x0, [sp, #24]
ffffffff80002004:	f9402000 	ldr	x0, [x0, #64]
ffffffff80002008:	f100001f 	cmp	x0, #0x0
ffffffff8000200c:	54000240 	b.eq	ffffffff80002054 <linux_private_parse+0x60>  // b.none
ffffffff80002010:	f9400fe0 	ldr	x0, [sp, #24]
ffffffff80002014:	f940d400 	ldr	x0, [x0, #424]
ffffffff80002018:	f100001f 	cmp	x0, #0x0
ffffffff8000201c:	540001e0 	b.eq	ffffffff80002058 <linux_private_parse+0x64>  // b.none
ffffffff80002020:	f9400fe0 	ldr	x0, [sp, #24]
ffffffff80002024:	f940d405 	ldr	x5, [x0, #424]
ffffffff80002028:	f9400fe0 	ldr	x0, [sp, #24]
ffffffff8000202c:	f9402001 	ldr	x1, [x0, #64]
ffffffff80002030:	f9400fe0 	ldr	x0, [sp, #24]
ffffffff80002034:	9101e000 	add	x0, x0, #0x78
ffffffff80002038:	d2800004 	mov	x4, #0x0                   	// #0
ffffffff8000203c:	aa0003e3 	mov	x3, x0
ffffffff80002040:	aa0103e2 	mov	x2, x1
ffffffff80002044:	d2800a01 	mov	x1, #0x50                  	// #80
ffffffff80002048:	f9400fe0 	ldr	x0, [sp, #24]
ffffffff8000204c:	d63f00a0 	blr	x5
ffffffff80002050:	14000002 	b	ffffffff80002058 <linux_private_parse+0x64>
ffffffff80002054:	d503201f 	nop
ffffffff80002058:	a8c27bfd 	ldp	x29, x30, [sp], #32
ffffffff8000205c:	d65f03c0 	ret

ffffffff80002060 <mode_toggle>:
ffffffff80002060:	a9bd7bfd 	stp	x29, x30, [sp, #-48]!
ffffffff80002064:	910003fd 	mov	x29, sp
ffffffff80002068:	f9000fe0 	str	x0, [sp, #24]
ffffffff8000206c:	39005fe1 	strb	w1, [sp, #23]
ffffffff80002070:	f9400fe0 	ldr	x0, [sp, #24]
ffffffff80002074:	f9402000 	ldr	x0, [x0, #64]
ffffffff80002078:	f100001f 	cmp	x0, #0x0
ffffffff8000207c:	540004e0 	b.eq	ffffffff80002118 <mode_toggle+0xb8>  // b.none
ffffffff80002080:	39405fe0 	ldrb	w0, [sp, #23]
ffffffff80002084:	7101a01f 	cmp	w0, #0x68
ffffffff80002088:	54000080 	b.eq	ffffffff80002098 <mode_toggle+0x38>  // b.none
ffffffff8000208c:	7101b01f 	cmp	w0, #0x6c
ffffffff80002090:	540000a0 	b.eq	ffffffff800020a4 <mode_toggle+0x44>  // b.none
ffffffff80002094:	14000022 	b	ffffffff8000211c <mode_toggle+0xbc>
ffffffff80002098:	52800020 	mov	w0, #0x1                   	// #1
ffffffff8000209c:	3900bfe0 	strb	w0, [sp, #47]
ffffffff800020a0:	14000003 	b	ffffffff800020ac <mode_toggle+0x4c>
ffffffff800020a4:	3900bfff 	strb	wzr, [sp, #47]
ffffffff800020a8:	d503201f 	nop
ffffffff800020ac:	f9400fe0 	ldr	x0, [sp, #24]
ffffffff800020b0:	b9407800 	ldr	w0, [x0, #120]
ffffffff800020b4:	7100101f 	cmp	w0, #0x4
ffffffff800020b8:	540000a1 	b.ne	ffffffff800020cc <mode_toggle+0x6c>  // b.any
ffffffff800020bc:	f9400fe0 	ldr	x0, [sp, #24]
ffffffff800020c0:	3940bfe1 	ldrb	w1, [sp, #47]
ffffffff800020c4:	39005801 	strb	w1, [x0, #22]
ffffffff800020c8:	14000015 	b	ffffffff8000211c <mode_toggle+0xbc>
ffffffff800020cc:	f9400fe0 	ldr	x0, [sp, #24]
ffffffff800020d0:	f940d400 	ldr	x0, [x0, #424]
ffffffff800020d4:	f100001f 	cmp	x0, #0x0
ffffffff800020d8:	54000220 	b.eq	ffffffff8000211c <mode_toggle+0xbc>  // b.none
ffffffff800020dc:	f9400fe0 	ldr	x0, [sp, #24]
ffffffff800020e0:	f940d405 	ldr	x5, [x0, #424]
ffffffff800020e4:	f9400fe0 	ldr	x0, [sp, #24]
ffffffff800020e8:	f9402001 	ldr	x1, [x0, #64]
ffffffff800020ec:	f9400fe0 	ldr	x0, [sp, #24]
ffffffff800020f0:	9101e000 	add	x0, x0, #0x78
ffffffff800020f4:	aa0003e2 	mov	x2, x0
ffffffff800020f8:	39405fe0 	ldrb	w0, [sp, #23]
ffffffff800020fc:	aa0003e4 	mov	x4, x0
ffffffff80002100:	aa0203e3 	mov	x3, x2
ffffffff80002104:	aa0103e2 	mov	x2, x1
ffffffff80002108:	d28008c1 	mov	x1, #0x46                  	// #70
ffffffff8000210c:	f9400fe0 	ldr	x0, [sp, #24]
ffffffff80002110:	d63f00a0 	blr	x5
ffffffff80002114:	14000002 	b	ffffffff8000211c <mode_toggle+0xbc>
ffffffff80002118:	d503201f 	nop
ffffffff8000211c:	a8c37bfd 	ldp	x29, x30, [sp], #48
ffffffff80002120:	d65f03c0 	ret

ffffffff80002124 <osc_parse>:
ffffffff80002124:	d10043ff 	sub	sp, sp, #0x10
ffffffff80002128:	f90007e0 	str	x0, [sp, #8]
ffffffff8000212c:	39001fe1 	strb	w1, [sp, #7]
ffffffff80002130:	f94007e0 	ldr	x0, [sp, #8]
ffffffff80002134:	39403c00 	ldrb	w0, [x0, #15]
ffffffff80002138:	12000000 	and	w0, w0, #0x1
ffffffff8000213c:	7100001f 	cmp	w0, #0x0
ffffffff80002140:	54000080 	b.eq	ffffffff80002150 <osc_parse+0x2c>  // b.none
ffffffff80002144:	39401fe0 	ldrb	w0, [sp, #7]
ffffffff80002148:	7101701f 	cmp	w0, #0x5c
ffffffff8000214c:	540001a0 	b.eq	ffffffff80002180 <osc_parse+0x5c>  // b.none
ffffffff80002150:	f94007e0 	ldr	x0, [sp, #8]
ffffffff80002154:	39003c1f 	strb	wzr, [x0, #15]
ffffffff80002158:	39401fe0 	ldrb	w0, [sp, #7]
ffffffff8000215c:	71001c1f 	cmp	w0, #0x7
ffffffff80002160:	54000140 	b.eq	ffffffff80002188 <osc_parse+0x64>  // b.none
ffffffff80002164:	71006c1f 	cmp	w0, #0x1b
ffffffff80002168:	54000201 	b.ne	ffffffff800021a8 <osc_parse+0x84>  // b.any
ffffffff8000216c:	f94007e0 	ldr	x0, [sp, #8]
ffffffff80002170:	52800021 	mov	w1, #0x1                   	// #1
ffffffff80002174:	39003c01 	strb	w1, [x0, #15]
ffffffff80002178:	d503201f 	nop
ffffffff8000217c:	1400000b 	b	ffffffff800021a8 <osc_parse+0x84>
ffffffff80002180:	d503201f 	nop
ffffffff80002184:	14000002 	b	ffffffff8000218c <osc_parse+0x68>
ffffffff80002188:	d503201f 	nop
ffffffff8000218c:	f94007e0 	ldr	x0, [sp, #8]
ffffffff80002190:	39003c1f 	strb	wzr, [x0, #15]
ffffffff80002194:	f94007e0 	ldr	x0, [sp, #8]
ffffffff80002198:	3900381f 	strb	wzr, [x0, #14]
ffffffff8000219c:	f94007e0 	ldr	x0, [sp, #8]
ffffffff800021a0:	3900341f 	strb	wzr, [x0, #13]
ffffffff800021a4:	14000002 	b	ffffffff800021ac <osc_parse+0x88>
ffffffff800021a8:	d503201f 	nop
ffffffff800021ac:	910043ff 	add	sp, sp, #0x10
ffffffff800021b0:	d65f03c0 	ret

ffffffff800021b4 <control_sequence_parse>:
ffffffff800021b4:	a9b07bfd 	stp	x29, x30, [sp, #-256]!
ffffffff800021b8:	910003fd 	mov	x29, sp
ffffffff800021bc:	f9000fe0 	str	x0, [sp, #24]
ffffffff800021c0:	39005fe1 	strb	w1, [sp, #23]
ffffffff800021c4:	f9400fe0 	ldr	x0, [sp, #24]
ffffffff800021c8:	f9401c00 	ldr	x0, [x0, #56]
ffffffff800021cc:	f100081f 	cmp	x0, #0x2
ffffffff800021d0:	540001c1 	b.ne	ffffffff80002208 <control_sequence_parse+0x54>  // b.any
ffffffff800021d4:	39405fe0 	ldrb	w0, [sp, #23]
ffffffff800021d8:	7100fc1f 	cmp	w0, #0x3f
ffffffff800021dc:	540000e0 	b.eq	ffffffff800021f8 <control_sequence_parse+0x44>  // b.none
ffffffff800021e0:	71016c1f 	cmp	w0, #0x5b
ffffffff800021e4:	54000121 	b.ne	ffffffff80002208 <control_sequence_parse+0x54>  // b.any
ffffffff800021e8:	f9400fe0 	ldr	x0, [sp, #24]
ffffffff800021ec:	52800021 	mov	w1, #0x1                   	// #1
ffffffff800021f0:	39004401 	strb	w1, [x0, #17]
ffffffff800021f4:	140003e6 	b	ffffffff8000318c <control_sequence_parse+0xfd8>
ffffffff800021f8:	f9400fe0 	ldr	x0, [sp, #24]
ffffffff800021fc:	52800021 	mov	w1, #0x1                   	// #1
ffffffff80002200:	39005401 	strb	w1, [x0, #21]
ffffffff80002204:	140003ea 	b	ffffffff800031ac <control_sequence_parse+0xff8>
ffffffff80002208:	39405fe0 	ldrb	w0, [sp, #23]
ffffffff8000220c:	7100bc1f 	cmp	w0, #0x2f
ffffffff80002210:	54000609 	b.ls	ffffffff800022d0 <control_sequence_parse+0x11c>  // b.plast
ffffffff80002214:	39405fe0 	ldrb	w0, [sp, #23]
ffffffff80002218:	7100e41f 	cmp	w0, #0x39
ffffffff8000221c:	540005a8 	b.hi	ffffffff800022d0 <control_sequence_parse+0x11c>  // b.pmore
ffffffff80002220:	f9400fe0 	ldr	x0, [sp, #24]
ffffffff80002224:	f9402000 	ldr	x0, [x0, #64]
ffffffff80002228:	f100401f 	cmp	x0, #0x10
ffffffff8000222c:	54007ba0 	b.eq	ffffffff800031a0 <control_sequence_parse+0xfec>  // b.none
ffffffff80002230:	f9400fe0 	ldr	x0, [sp, #24]
ffffffff80002234:	52800021 	mov	w1, #0x1                   	// #1
ffffffff80002238:	39004001 	strb	w1, [x0, #16]
ffffffff8000223c:	f9400fe0 	ldr	x0, [sp, #24]
ffffffff80002240:	f9402000 	ldr	x0, [x0, #64]
ffffffff80002244:	f9400fe1 	ldr	x1, [sp, #24]
ffffffff80002248:	91007000 	add	x0, x0, #0x1c
ffffffff8000224c:	d37ef400 	lsl	x0, x0, #2
ffffffff80002250:	8b000020 	add	x0, x1, x0
ffffffff80002254:	b9400801 	ldr	w1, [x0, #8]
ffffffff80002258:	f9400fe0 	ldr	x0, [sp, #24]
ffffffff8000225c:	f9402002 	ldr	x2, [x0, #64]
ffffffff80002260:	2a0103e0 	mov	w0, w1
ffffffff80002264:	531e7400 	lsl	w0, w0, #2
ffffffff80002268:	0b010000 	add	w0, w0, w1
ffffffff8000226c:	531f7800 	lsl	w0, w0, #1
ffffffff80002270:	2a0003e3 	mov	w3, w0
ffffffff80002274:	f9400fe1 	ldr	x1, [sp, #24]
ffffffff80002278:	91007040 	add	x0, x2, #0x1c
ffffffff8000227c:	d37ef400 	lsl	x0, x0, #2
ffffffff80002280:	8b000020 	add	x0, x1, x0
ffffffff80002284:	b9000803 	str	w3, [x0, #8]
ffffffff80002288:	f9400fe0 	ldr	x0, [sp, #24]
ffffffff8000228c:	f9402000 	ldr	x0, [x0, #64]
ffffffff80002290:	f9400fe1 	ldr	x1, [sp, #24]
ffffffff80002294:	91007000 	add	x0, x0, #0x1c
ffffffff80002298:	d37ef400 	lsl	x0, x0, #2
ffffffff8000229c:	8b000020 	add	x0, x1, x0
ffffffff800022a0:	b9400801 	ldr	w1, [x0, #8]
ffffffff800022a4:	39405fe0 	ldrb	w0, [sp, #23]
ffffffff800022a8:	0b000021 	add	w1, w1, w0
ffffffff800022ac:	f9400fe0 	ldr	x0, [sp, #24]
ffffffff800022b0:	f9402000 	ldr	x0, [x0, #64]
ffffffff800022b4:	5100c021 	sub	w1, w1, #0x30
ffffffff800022b8:	f9400fe2 	ldr	x2, [sp, #24]
ffffffff800022bc:	91007000 	add	x0, x0, #0x1c
ffffffff800022c0:	d37ef400 	lsl	x0, x0, #2
ffffffff800022c4:	8b000040 	add	x0, x2, x0
ffffffff800022c8:	b9000801 	str	w1, [x0, #8]
ffffffff800022cc:	140003b8 	b	ffffffff800031ac <control_sequence_parse+0xff8>
ffffffff800022d0:	f9400fe0 	ldr	x0, [sp, #24]
ffffffff800022d4:	39404000 	ldrb	w0, [x0, #16]
ffffffff800022d8:	12000000 	and	w0, w0, #0x1
ffffffff800022dc:	7100001f 	cmp	w0, #0x0
ffffffff800022e0:	54000180 	b.eq	ffffffff80002310 <control_sequence_parse+0x15c>  // b.none
ffffffff800022e4:	f9400fe0 	ldr	x0, [sp, #24]
ffffffff800022e8:	f9402000 	ldr	x0, [x0, #64]
ffffffff800022ec:	91000401 	add	x1, x0, #0x1
ffffffff800022f0:	f9400fe0 	ldr	x0, [sp, #24]
ffffffff800022f4:	f9002001 	str	x1, [x0, #64]
ffffffff800022f8:	f9400fe0 	ldr	x0, [sp, #24]
ffffffff800022fc:	3900401f 	strb	wzr, [x0, #16]
ffffffff80002300:	39405fe0 	ldrb	w0, [sp, #23]
ffffffff80002304:	7100ec1f 	cmp	w0, #0x3b
ffffffff80002308:	540002c1 	b.ne	ffffffff80002360 <control_sequence_parse+0x1ac>  // b.any
ffffffff8000230c:	140003a8 	b	ffffffff800031ac <control_sequence_parse+0xff8>
ffffffff80002310:	39405fe0 	ldrb	w0, [sp, #23]
ffffffff80002314:	7100ec1f 	cmp	w0, #0x3b
ffffffff80002318:	54000241 	b.ne	ffffffff80002360 <control_sequence_parse+0x1ac>  // b.any
ffffffff8000231c:	f9400fe0 	ldr	x0, [sp, #24]
ffffffff80002320:	f9402000 	ldr	x0, [x0, #64]
ffffffff80002324:	f100401f 	cmp	x0, #0x10
ffffffff80002328:	54007400 	b.eq	ffffffff800031a8 <control_sequence_parse+0xff4>  // b.none
ffffffff8000232c:	f9400fe0 	ldr	x0, [sp, #24]
ffffffff80002330:	f9402000 	ldr	x0, [x0, #64]
ffffffff80002334:	f9400fe1 	ldr	x1, [sp, #24]
ffffffff80002338:	91007000 	add	x0, x0, #0x1c
ffffffff8000233c:	d37ef400 	lsl	x0, x0, #2
ffffffff80002340:	8b000020 	add	x0, x1, x0
ffffffff80002344:	b900081f 	str	wzr, [x0, #8]
ffffffff80002348:	f9400fe0 	ldr	x0, [sp, #24]
ffffffff8000234c:	f9402000 	ldr	x0, [x0, #64]
ffffffff80002350:	91000401 	add	x1, x0, #0x1
ffffffff80002354:	f9400fe0 	ldr	x0, [sp, #24]
ffffffff80002358:	f9002001 	str	x1, [x0, #64]
ffffffff8000235c:	14000394 	b	ffffffff800031ac <control_sequence_parse+0xff8>
ffffffff80002360:	39405fe0 	ldrb	w0, [sp, #23]
ffffffff80002364:	71012c1f 	cmp	w0, #0x4b
ffffffff80002368:	5400008c 	b.gt	ffffffff80002378 <control_sequence_parse+0x1c4>
ffffffff8000236c:	7101281f 	cmp	w0, #0x4a
ffffffff80002370:	5400008a 	b.ge	ffffffff80002380 <control_sequence_parse+0x1cc>  // b.tcont
ffffffff80002374:	14000005 	b	ffffffff80002388 <control_sequence_parse+0x1d4>
ffffffff80002378:	7101c41f 	cmp	w0, #0x71
ffffffff8000237c:	54000061 	b.ne	ffffffff80002388 <control_sequence_parse+0x1d4>  // b.any
ffffffff80002380:	f9007fff 	str	xzr, [sp, #248]
ffffffff80002384:	14000004 	b	ffffffff80002394 <control_sequence_parse+0x1e0>
ffffffff80002388:	d2800020 	mov	x0, #0x1                   	// #1
ffffffff8000238c:	f9007fe0 	str	x0, [sp, #248]
ffffffff80002390:	d503201f 	nop
ffffffff80002394:	f9400fe0 	ldr	x0, [sp, #24]
ffffffff80002398:	f9402000 	ldr	x0, [x0, #64]
ffffffff8000239c:	f9007be0 	str	x0, [sp, #240]
ffffffff800023a0:	1400000c 	b	ffffffff800023d0 <control_sequence_parse+0x21c>
ffffffff800023a4:	f9407fe0 	ldr	x0, [sp, #248]
ffffffff800023a8:	2a0003e2 	mov	w2, w0
ffffffff800023ac:	f9400fe1 	ldr	x1, [sp, #24]
ffffffff800023b0:	f9407be0 	ldr	x0, [sp, #240]
ffffffff800023b4:	91007000 	add	x0, x0, #0x1c
ffffffff800023b8:	d37ef400 	lsl	x0, x0, #2
ffffffff800023bc:	8b000020 	add	x0, x1, x0
ffffffff800023c0:	b9000802 	str	w2, [x0, #8]
ffffffff800023c4:	f9407be0 	ldr	x0, [sp, #240]
ffffffff800023c8:	91000400 	add	x0, x0, #0x1
ffffffff800023cc:	f9007be0 	str	x0, [sp, #240]
ffffffff800023d0:	f9407be0 	ldr	x0, [sp, #240]
ffffffff800023d4:	f1003c1f 	cmp	x0, #0xf
ffffffff800023d8:	54fffe69 	b.ls	ffffffff800023a4 <control_sequence_parse+0x1f0>  // b.plast
ffffffff800023dc:	f9400fe0 	ldr	x0, [sp, #24]
ffffffff800023e0:	39405400 	ldrb	w0, [x0, #21]
ffffffff800023e4:	12000000 	and	w0, w0, #0x1
ffffffff800023e8:	7100001f 	cmp	w0, #0x0
ffffffff800023ec:	540000a0 	b.eq	ffffffff80002400 <control_sequence_parse+0x24c>  // b.none
ffffffff800023f0:	39405fe1 	ldrb	w1, [sp, #23]
ffffffff800023f4:	f9400fe0 	ldr	x0, [sp, #24]
ffffffff800023f8:	97fffec5 	bl	ffffffff80001f0c <dec_private_parse>
ffffffff800023fc:	14000364 	b	ffffffff8000318c <control_sequence_parse+0xfd8>
ffffffff80002400:	f9400fe0 	ldr	x0, [sp, #24]
ffffffff80002404:	39402800 	ldrb	w0, [x0, #10]
ffffffff80002408:	3901bfe0 	strb	w0, [sp, #111]
ffffffff8000240c:	f9400fe0 	ldr	x0, [sp, #24]
ffffffff80002410:	3900281f 	strb	wzr, [x0, #10]
ffffffff80002414:	f9400fe0 	ldr	x0, [sp, #24]
ffffffff80002418:	f9408403 	ldr	x3, [x0, #264]
ffffffff8000241c:	9100a3e1 	add	x1, sp, #0x28
ffffffff80002420:	9100c3e0 	add	x0, sp, #0x30
ffffffff80002424:	aa0103e2 	mov	x2, x1
ffffffff80002428:	aa0003e1 	mov	x1, x0
ffffffff8000242c:	f9400fe0 	ldr	x0, [sp, #24]
ffffffff80002430:	d63f0060 	blr	x3
ffffffff80002434:	39405fe0 	ldrb	w0, [sp, #23]
ffffffff80002438:	51010000 	sub	w0, w0, #0x40
ffffffff8000243c:	7100d41f 	cmp	w0, #0x35
ffffffff80002440:	54006a08 	b.hi	ffffffff80003180 <control_sequence_parse+0xfcc>  // b.pmore
ffffffff80002444:	d00000a1 	adrp	x1, ffffffff80018000 <_exc_lower_32_serror+0x10080>
ffffffff80002448:	91158021 	add	x1, x1, #0x560
ffffffff8000244c:	b8605820 	ldr	w0, [x1, w0, uxtw #2]
ffffffff80002450:	10000061 	adr	x1, ffffffff8000245c <control_sequence_parse+0x2a8>
ffffffff80002454:	8b20c820 	add	x0, x1, w0, sxtw #2
ffffffff80002458:	d61f0000 	br	x0
ffffffff8000245c:	f9001bff 	str	xzr, [sp, #48]
ffffffff80002460:	f9400fe0 	ldr	x0, [sp, #24]
ffffffff80002464:	b9407800 	ldr	w0, [x0, #120]
ffffffff80002468:	2a0003e1 	mov	w1, w0
ffffffff8000246c:	f94017e0 	ldr	x0, [sp, #40]
ffffffff80002470:	eb00003f 	cmp	x1, x0
ffffffff80002474:	540000a9 	b.ls	ffffffff80002488 <control_sequence_parse+0x2d4>  // b.plast
ffffffff80002478:	f94017e0 	ldr	x0, [sp, #40]
ffffffff8000247c:	2a0003e1 	mov	w1, w0
ffffffff80002480:	f9400fe0 	ldr	x0, [sp, #24]
ffffffff80002484:	b9007801 	str	w1, [x0, #120]
ffffffff80002488:	f94017e0 	ldr	x0, [sp, #40]
ffffffff8000248c:	f9001fe0 	str	x0, [sp, #56]
ffffffff80002490:	f94017e1 	ldr	x1, [sp, #40]
ffffffff80002494:	f9400fe0 	ldr	x0, [sp, #24]
ffffffff80002498:	b9407800 	ldr	w0, [x0, #120]
ffffffff8000249c:	2a0003e0 	mov	w0, w0
ffffffff800024a0:	cb000020 	sub	x0, x1, x0
ffffffff800024a4:	f90077e0 	str	x0, [sp, #232]
ffffffff800024a8:	39039fff 	strb	wzr, [sp, #231]
ffffffff800024ac:	f9400fe0 	ldr	x0, [sp, #24]
ffffffff800024b0:	f9403400 	ldr	x0, [x0, #104]
ffffffff800024b4:	f94077e1 	ldr	x1, [sp, #232]
ffffffff800024b8:	eb00003f 	cmp	x1, x0
ffffffff800024bc:	540000c8 	b.hi	ffffffff800024d4 <control_sequence_parse+0x320>  // b.pmore
ffffffff800024c0:	f9400fe0 	ldr	x0, [sp, #24]
ffffffff800024c4:	f9403400 	ldr	x0, [x0, #104]
ffffffff800024c8:	f9401fe1 	ldr	x1, [sp, #56]
ffffffff800024cc:	eb00003f 	cmp	x1, x0
ffffffff800024d0:	54000162 	b.cs	ffffffff800024fc <control_sequence_parse+0x348>  // b.hs, b.nlast
ffffffff800024d4:	f9400fe0 	ldr	x0, [sp, #24]
ffffffff800024d8:	f9403800 	ldr	x0, [x0, #112]
ffffffff800024dc:	f94077e1 	ldr	x1, [sp, #232]
ffffffff800024e0:	eb00003f 	cmp	x1, x0
ffffffff800024e4:	54000108 	b.hi	ffffffff80002504 <control_sequence_parse+0x350>  // b.pmore
ffffffff800024e8:	f9400fe0 	ldr	x0, [sp, #24]
ffffffff800024ec:	f9403800 	ldr	x0, [x0, #112]
ffffffff800024f0:	f9401fe1 	ldr	x1, [sp, #56]
ffffffff800024f4:	eb00003f 	cmp	x1, x0
ffffffff800024f8:	54000063 	b.cc	ffffffff80002504 <control_sequence_parse+0x350>  // b.lo, b.ul, b.last
ffffffff800024fc:	52800020 	mov	w0, #0x1                   	// #1
ffffffff80002500:	39039fe0 	strb	w0, [sp, #231]
ffffffff80002504:	39439fe0 	ldrb	w0, [sp, #231]
ffffffff80002508:	12000000 	and	w0, w0, #0x1
ffffffff8000250c:	7100001f 	cmp	w0, #0x0
ffffffff80002510:	54000120 	b.eq	ffffffff80002534 <control_sequence_parse+0x380>  // b.none
ffffffff80002514:	f9400fe0 	ldr	x0, [sp, #24]
ffffffff80002518:	f9403400 	ldr	x0, [x0, #104]
ffffffff8000251c:	f94077e1 	ldr	x1, [sp, #232]
ffffffff80002520:	eb00003f 	cmp	x1, x0
ffffffff80002524:	54000082 	b.cs	ffffffff80002534 <control_sequence_parse+0x380>  // b.hs, b.nlast
ffffffff80002528:	f9400fe0 	ldr	x0, [sp, #24]
ffffffff8000252c:	f9403400 	ldr	x0, [x0, #104]
ffffffff80002530:	f90077e0 	str	x0, [sp, #232]
ffffffff80002534:	f9400fe0 	ldr	x0, [sp, #24]
ffffffff80002538:	f9408003 	ldr	x3, [x0, #256]
ffffffff8000253c:	f9401be0 	ldr	x0, [sp, #48]
ffffffff80002540:	f94077e2 	ldr	x2, [sp, #232]
ffffffff80002544:	aa0003e1 	mov	x1, x0
ffffffff80002548:	f9400fe0 	ldr	x0, [sp, #24]
ffffffff8000254c:	d63f0060 	blr	x3
ffffffff80002550:	1400030c 	b	ffffffff80003180 <control_sequence_parse+0xfcc>
ffffffff80002554:	f9001bff 	str	xzr, [sp, #48]
ffffffff80002558:	f9400fe0 	ldr	x0, [sp, #24]
ffffffff8000255c:	b9407800 	ldr	w0, [x0, #120]
ffffffff80002560:	2a0003e1 	mov	w1, w0
ffffffff80002564:	f94017e0 	ldr	x0, [sp, #40]
ffffffff80002568:	8b000021 	add	x1, x1, x0
ffffffff8000256c:	f9400fe0 	ldr	x0, [sp, #24]
ffffffff80002570:	f9407000 	ldr	x0, [x0, #224]
ffffffff80002574:	d1000400 	sub	x0, x0, #0x1
ffffffff80002578:	eb00003f 	cmp	x1, x0
ffffffff8000257c:	54000129 	b.ls	ffffffff800025a0 <control_sequence_parse+0x3ec>  // b.plast
ffffffff80002580:	f9400fe0 	ldr	x0, [sp, #24]
ffffffff80002584:	f9407000 	ldr	x0, [x0, #224]
ffffffff80002588:	2a0003e1 	mov	w1, w0
ffffffff8000258c:	f94017e0 	ldr	x0, [sp, #40]
ffffffff80002590:	4b000020 	sub	w0, w1, w0
ffffffff80002594:	51000401 	sub	w1, w0, #0x1
ffffffff80002598:	f9400fe0 	ldr	x0, [sp, #24]
ffffffff8000259c:	b9007801 	str	w1, [x0, #120]
ffffffff800025a0:	f94017e0 	ldr	x0, [sp, #40]
ffffffff800025a4:	f90023e0 	str	x0, [sp, #64]
ffffffff800025a8:	f9400fe0 	ldr	x0, [sp, #24]
ffffffff800025ac:	b9407800 	ldr	w0, [x0, #120]
ffffffff800025b0:	2a0003e1 	mov	w1, w0
ffffffff800025b4:	f94017e0 	ldr	x0, [sp, #40]
ffffffff800025b8:	8b000020 	add	x0, x1, x0
ffffffff800025bc:	f9006fe0 	str	x0, [sp, #216]
ffffffff800025c0:	39035fff 	strb	wzr, [sp, #215]
ffffffff800025c4:	f9400fe0 	ldr	x0, [sp, #24]
ffffffff800025c8:	f9403400 	ldr	x0, [x0, #104]
ffffffff800025cc:	f94023e1 	ldr	x1, [sp, #64]
ffffffff800025d0:	eb00003f 	cmp	x1, x0
ffffffff800025d4:	540000c8 	b.hi	ffffffff800025ec <control_sequence_parse+0x438>  // b.pmore
ffffffff800025d8:	f9400fe0 	ldr	x0, [sp, #24]
ffffffff800025dc:	f9403400 	ldr	x0, [x0, #104]
ffffffff800025e0:	f9406fe1 	ldr	x1, [sp, #216]
ffffffff800025e4:	eb00003f 	cmp	x1, x0
ffffffff800025e8:	54000162 	b.cs	ffffffff80002614 <control_sequence_parse+0x460>  // b.hs, b.nlast
ffffffff800025ec:	f9400fe0 	ldr	x0, [sp, #24]
ffffffff800025f0:	f9403800 	ldr	x0, [x0, #112]
ffffffff800025f4:	f94023e1 	ldr	x1, [sp, #64]
ffffffff800025f8:	eb00003f 	cmp	x1, x0
ffffffff800025fc:	54000108 	b.hi	ffffffff8000261c <control_sequence_parse+0x468>  // b.pmore
ffffffff80002600:	f9400fe0 	ldr	x0, [sp, #24]
ffffffff80002604:	f9403800 	ldr	x0, [x0, #112]
ffffffff80002608:	f9406fe1 	ldr	x1, [sp, #216]
ffffffff8000260c:	eb00003f 	cmp	x1, x0
ffffffff80002610:	54000063 	b.cc	ffffffff8000261c <control_sequence_parse+0x468>  // b.lo, b.ul, b.last
ffffffff80002614:	52800020 	mov	w0, #0x1                   	// #1
ffffffff80002618:	39035fe0 	strb	w0, [sp, #215]
ffffffff8000261c:	39435fe0 	ldrb	w0, [sp, #215]
ffffffff80002620:	12000000 	and	w0, w0, #0x1
ffffffff80002624:	7100001f 	cmp	w0, #0x0
ffffffff80002628:	54000140 	b.eq	ffffffff80002650 <control_sequence_parse+0x49c>  // b.none
ffffffff8000262c:	f9400fe0 	ldr	x0, [sp, #24]
ffffffff80002630:	f9403800 	ldr	x0, [x0, #112]
ffffffff80002634:	f9406fe1 	ldr	x1, [sp, #216]
ffffffff80002638:	eb00003f 	cmp	x1, x0
ffffffff8000263c:	540000a3 	b.cc	ffffffff80002650 <control_sequence_parse+0x49c>  // b.lo, b.ul, b.last
ffffffff80002640:	f9400fe0 	ldr	x0, [sp, #24]
ffffffff80002644:	f9403800 	ldr	x0, [x0, #112]
ffffffff80002648:	d1000400 	sub	x0, x0, #0x1
ffffffff8000264c:	f9006fe0 	str	x0, [sp, #216]
ffffffff80002650:	f9400fe0 	ldr	x0, [sp, #24]
ffffffff80002654:	f9408003 	ldr	x3, [x0, #256]
ffffffff80002658:	f9401be0 	ldr	x0, [sp, #48]
ffffffff8000265c:	f9406fe2 	ldr	x2, [sp, #216]
ffffffff80002660:	aa0003e1 	mov	x1, x0
ffffffff80002664:	f9400fe0 	ldr	x0, [sp, #24]
ffffffff80002668:	d63f0060 	blr	x3
ffffffff8000266c:	140002c5 	b	ffffffff80003180 <control_sequence_parse+0xfcc>
ffffffff80002670:	f9400fe0 	ldr	x0, [sp, #24]
ffffffff80002674:	b9407800 	ldr	w0, [x0, #120]
ffffffff80002678:	2a0003e1 	mov	w1, w0
ffffffff8000267c:	f9401be0 	ldr	x0, [sp, #48]
ffffffff80002680:	8b000021 	add	x1, x1, x0
ffffffff80002684:	f9400fe0 	ldr	x0, [sp, #24]
ffffffff80002688:	f9407400 	ldr	x0, [x0, #232]
ffffffff8000268c:	d1000400 	sub	x0, x0, #0x1
ffffffff80002690:	eb00003f 	cmp	x1, x0
ffffffff80002694:	54000129 	b.ls	ffffffff800026b8 <control_sequence_parse+0x504>  // b.plast
ffffffff80002698:	f9400fe0 	ldr	x0, [sp, #24]
ffffffff8000269c:	f9407400 	ldr	x0, [x0, #232]
ffffffff800026a0:	2a0003e1 	mov	w1, w0
ffffffff800026a4:	f9401be0 	ldr	x0, [sp, #48]
ffffffff800026a8:	4b000020 	sub	w0, w1, w0
ffffffff800026ac:	51000401 	sub	w1, w0, #0x1
ffffffff800026b0:	f9400fe0 	ldr	x0, [sp, #24]
ffffffff800026b4:	b9007801 	str	w1, [x0, #120]
ffffffff800026b8:	f9400fe0 	ldr	x0, [sp, #24]
ffffffff800026bc:	f9408003 	ldr	x3, [x0, #256]
ffffffff800026c0:	f9400fe0 	ldr	x0, [sp, #24]
ffffffff800026c4:	b9407800 	ldr	w0, [x0, #120]
ffffffff800026c8:	2a0003e1 	mov	w1, w0
ffffffff800026cc:	f9401be0 	ldr	x0, [sp, #48]
ffffffff800026d0:	8b000020 	add	x0, x1, x0
ffffffff800026d4:	f94017e1 	ldr	x1, [sp, #40]
ffffffff800026d8:	aa0103e2 	mov	x2, x1
ffffffff800026dc:	aa0003e1 	mov	x1, x0
ffffffff800026e0:	f9400fe0 	ldr	x0, [sp, #24]
ffffffff800026e4:	d63f0060 	blr	x3
ffffffff800026e8:	140002a6 	b	ffffffff80003180 <control_sequence_parse+0xfcc>
ffffffff800026ec:	f9400fe0 	ldr	x0, [sp, #24]
ffffffff800026f0:	b9407800 	ldr	w0, [x0, #120]
ffffffff800026f4:	2a0003e1 	mov	w1, w0
ffffffff800026f8:	f9401be0 	ldr	x0, [sp, #48]
ffffffff800026fc:	eb00003f 	cmp	x1, x0
ffffffff80002700:	540000a9 	b.ls	ffffffff80002714 <control_sequence_parse+0x560>  // b.plast
ffffffff80002704:	f9401be0 	ldr	x0, [sp, #48]
ffffffff80002708:	2a0003e1 	mov	w1, w0
ffffffff8000270c:	f9400fe0 	ldr	x0, [sp, #24]
ffffffff80002710:	b9007801 	str	w1, [x0, #120]
ffffffff80002714:	f9400fe0 	ldr	x0, [sp, #24]
ffffffff80002718:	f9408003 	ldr	x3, [x0, #256]
ffffffff8000271c:	f9401be1 	ldr	x1, [sp, #48]
ffffffff80002720:	f9400fe0 	ldr	x0, [sp, #24]
ffffffff80002724:	b9407800 	ldr	w0, [x0, #120]
ffffffff80002728:	2a0003e0 	mov	w0, w0
ffffffff8000272c:	cb000020 	sub	x0, x1, x0
ffffffff80002730:	f94017e1 	ldr	x1, [sp, #40]
ffffffff80002734:	aa0103e2 	mov	x2, x1
ffffffff80002738:	aa0003e1 	mov	x1, x0
ffffffff8000273c:	f9400fe0 	ldr	x0, [sp, #24]
ffffffff80002740:	d63f0060 	blr	x3
ffffffff80002744:	1400028f 	b	ffffffff80003180 <control_sequence_parse+0xfcc>
ffffffff80002748:	f9400fe0 	ldr	x0, [sp, #24]
ffffffff8000274c:	f940d400 	ldr	x0, [x0, #424]
ffffffff80002750:	f100001f 	cmp	x0, #0x0
ffffffff80002754:	54005080 	b.eq	ffffffff80003164 <control_sequence_parse+0xfb0>  // b.none
ffffffff80002758:	f9400fe0 	ldr	x0, [sp, #24]
ffffffff8000275c:	f940d405 	ldr	x5, [x0, #424]
ffffffff80002760:	d2800004 	mov	x4, #0x0                   	// #0
ffffffff80002764:	d2800003 	mov	x3, #0x0                   	// #0
ffffffff80002768:	d2800002 	mov	x2, #0x0                   	// #0
ffffffff8000276c:	d28003c1 	mov	x1, #0x1e                  	// #30
ffffffff80002770:	f9400fe0 	ldr	x0, [sp, #24]
ffffffff80002774:	d63f00a0 	blr	x5
ffffffff80002778:	1400027b 	b	ffffffff80003164 <control_sequence_parse+0xfb0>
ffffffff8000277c:	f9400fe0 	ldr	x0, [sp, #24]
ffffffff80002780:	b9407800 	ldr	w0, [x0, #120]
ffffffff80002784:	51000401 	sub	w1, w0, #0x1
ffffffff80002788:	f9400fe0 	ldr	x0, [sp, #24]
ffffffff8000278c:	b9007801 	str	w1, [x0, #120]
ffffffff80002790:	f9400fe0 	ldr	x0, [sp, #24]
ffffffff80002794:	b9407800 	ldr	w0, [x0, #120]
ffffffff80002798:	2a0003e1 	mov	w1, w0
ffffffff8000279c:	f9400fe0 	ldr	x0, [sp, #24]
ffffffff800027a0:	f9407000 	ldr	x0, [x0, #224]
ffffffff800027a4:	eb00003f 	cmp	x1, x0
ffffffff800027a8:	540000c3 	b.cc	ffffffff800027c0 <control_sequence_parse+0x60c>  // b.lo, b.ul, b.last
ffffffff800027ac:	f9400fe0 	ldr	x0, [sp, #24]
ffffffff800027b0:	f9407000 	ldr	x0, [x0, #224]
ffffffff800027b4:	51000401 	sub	w1, w0, #0x1
ffffffff800027b8:	f9400fe0 	ldr	x0, [sp, #24]
ffffffff800027bc:	b9007801 	str	w1, [x0, #120]
ffffffff800027c0:	f9400fe0 	ldr	x0, [sp, #24]
ffffffff800027c4:	f9408003 	ldr	x3, [x0, #256]
ffffffff800027c8:	f9401be1 	ldr	x1, [sp, #48]
ffffffff800027cc:	f9400fe0 	ldr	x0, [sp, #24]
ffffffff800027d0:	b9407800 	ldr	w0, [x0, #120]
ffffffff800027d4:	2a0003e0 	mov	w0, w0
ffffffff800027d8:	aa0003e2 	mov	x2, x0
ffffffff800027dc:	f9400fe0 	ldr	x0, [sp, #24]
ffffffff800027e0:	d63f0060 	blr	x3
ffffffff800027e4:	14000267 	b	ffffffff80003180 <control_sequence_parse+0xfcc>
ffffffff800027e8:	f9400fe0 	ldr	x0, [sp, #24]
ffffffff800027ec:	b9407800 	ldr	w0, [x0, #120]
ffffffff800027f0:	51000401 	sub	w1, w0, #0x1
ffffffff800027f4:	f9400fe0 	ldr	x0, [sp, #24]
ffffffff800027f8:	b9007801 	str	w1, [x0, #120]
ffffffff800027fc:	f9400fe0 	ldr	x0, [sp, #24]
ffffffff80002800:	b9407800 	ldr	w0, [x0, #120]
ffffffff80002804:	2a0003e1 	mov	w1, w0
ffffffff80002808:	f9400fe0 	ldr	x0, [sp, #24]
ffffffff8000280c:	f9407400 	ldr	x0, [x0, #232]
ffffffff80002810:	eb00003f 	cmp	x1, x0
ffffffff80002814:	540000c3 	b.cc	ffffffff8000282c <control_sequence_parse+0x678>  // b.lo, b.ul, b.last
ffffffff80002818:	f9400fe0 	ldr	x0, [sp, #24]
ffffffff8000281c:	f9407400 	ldr	x0, [x0, #232]
ffffffff80002820:	51000401 	sub	w1, w0, #0x1
ffffffff80002824:	f9400fe0 	ldr	x0, [sp, #24]
ffffffff80002828:	b9007801 	str	w1, [x0, #120]
ffffffff8000282c:	f9400fe0 	ldr	x0, [sp, #24]
ffffffff80002830:	f9408003 	ldr	x3, [x0, #256]
ffffffff80002834:	f9400fe0 	ldr	x0, [sp, #24]
ffffffff80002838:	b9407800 	ldr	w0, [x0, #120]
ffffffff8000283c:	2a0003e0 	mov	w0, w0
ffffffff80002840:	f94017e1 	ldr	x1, [sp, #40]
ffffffff80002844:	aa0103e2 	mov	x2, x1
ffffffff80002848:	aa0003e1 	mov	x1, x0
ffffffff8000284c:	f9400fe0 	ldr	x0, [sp, #24]
ffffffff80002850:	d63f0060 	blr	x3
ffffffff80002854:	1400024b 	b	ffffffff80003180 <control_sequence_parse+0xfcc>
ffffffff80002858:	f9400fe0 	ldr	x0, [sp, #24]
ffffffff8000285c:	b9407800 	ldr	w0, [x0, #120]
ffffffff80002860:	7100001f 	cmp	w0, #0x0
ffffffff80002864:	540000c0 	b.eq	ffffffff8000287c <control_sequence_parse+0x6c8>  // b.none
ffffffff80002868:	f9400fe0 	ldr	x0, [sp, #24]
ffffffff8000286c:	b9407800 	ldr	w0, [x0, #120]
ffffffff80002870:	51000401 	sub	w1, w0, #0x1
ffffffff80002874:	f9400fe0 	ldr	x0, [sp, #24]
ffffffff80002878:	b9007801 	str	w1, [x0, #120]
ffffffff8000287c:	f9400fe0 	ldr	x0, [sp, #24]
ffffffff80002880:	b9407c00 	ldr	w0, [x0, #124]
ffffffff80002884:	7100001f 	cmp	w0, #0x0
ffffffff80002888:	540000c0 	b.eq	ffffffff800028a0 <control_sequence_parse+0x6ec>  // b.none
ffffffff8000288c:	f9400fe0 	ldr	x0, [sp, #24]
ffffffff80002890:	b9407c00 	ldr	w0, [x0, #124]
ffffffff80002894:	51000401 	sub	w1, w0, #0x1
ffffffff80002898:	f9400fe0 	ldr	x0, [sp, #24]
ffffffff8000289c:	b9007c01 	str	w1, [x0, #124]
ffffffff800028a0:	f9400fe0 	ldr	x0, [sp, #24]
ffffffff800028a4:	b9407c00 	ldr	w0, [x0, #124]
ffffffff800028a8:	2a0003e1 	mov	w1, w0
ffffffff800028ac:	f9400fe0 	ldr	x0, [sp, #24]
ffffffff800028b0:	f9407400 	ldr	x0, [x0, #232]
ffffffff800028b4:	eb00003f 	cmp	x1, x0
ffffffff800028b8:	540000c3 	b.cc	ffffffff800028d0 <control_sequence_parse+0x71c>  // b.lo, b.ul, b.last
ffffffff800028bc:	f9400fe0 	ldr	x0, [sp, #24]
ffffffff800028c0:	f9407400 	ldr	x0, [x0, #232]
ffffffff800028c4:	51000401 	sub	w1, w0, #0x1
ffffffff800028c8:	f9400fe0 	ldr	x0, [sp, #24]
ffffffff800028cc:	b9007c01 	str	w1, [x0, #124]
ffffffff800028d0:	f9400fe0 	ldr	x0, [sp, #24]
ffffffff800028d4:	b9407800 	ldr	w0, [x0, #120]
ffffffff800028d8:	2a0003e1 	mov	w1, w0
ffffffff800028dc:	f9400fe0 	ldr	x0, [sp, #24]
ffffffff800028e0:	f9407000 	ldr	x0, [x0, #224]
ffffffff800028e4:	eb00003f 	cmp	x1, x0
ffffffff800028e8:	540000c3 	b.cc	ffffffff80002900 <control_sequence_parse+0x74c>  // b.lo, b.ul, b.last
ffffffff800028ec:	f9400fe0 	ldr	x0, [sp, #24]
ffffffff800028f0:	f9407000 	ldr	x0, [x0, #224]
ffffffff800028f4:	51000401 	sub	w1, w0, #0x1
ffffffff800028f8:	f9400fe0 	ldr	x0, [sp, #24]
ffffffff800028fc:	b9007801 	str	w1, [x0, #120]
ffffffff80002900:	f9400fe0 	ldr	x0, [sp, #24]
ffffffff80002904:	f9408003 	ldr	x3, [x0, #256]
ffffffff80002908:	f9400fe0 	ldr	x0, [sp, #24]
ffffffff8000290c:	b9407c00 	ldr	w0, [x0, #124]
ffffffff80002910:	2a0003e1 	mov	w1, w0
ffffffff80002914:	f9400fe0 	ldr	x0, [sp, #24]
ffffffff80002918:	b9407800 	ldr	w0, [x0, #120]
ffffffff8000291c:	2a0003e0 	mov	w0, w0
ffffffff80002920:	aa0003e2 	mov	x2, x0
ffffffff80002924:	f9400fe0 	ldr	x0, [sp, #24]
ffffffff80002928:	d63f0060 	blr	x3
ffffffff8000292c:	14000215 	b	ffffffff80003180 <control_sequence_parse+0xfcc>
ffffffff80002930:	f90067ff 	str	xzr, [sp, #200]
ffffffff80002934:	14000008 	b	ffffffff80002954 <control_sequence_parse+0x7a0>
ffffffff80002938:	f9400fe0 	ldr	x0, [sp, #24]
ffffffff8000293c:	f940b401 	ldr	x1, [x0, #360]
ffffffff80002940:	f9400fe0 	ldr	x0, [sp, #24]
ffffffff80002944:	d63f0020 	blr	x1
ffffffff80002948:	f94067e0 	ldr	x0, [sp, #200]
ffffffff8000294c:	91000400 	add	x0, x0, #0x1
ffffffff80002950:	f90067e0 	str	x0, [sp, #200]
ffffffff80002954:	f9400fe0 	ldr	x0, [sp, #24]
ffffffff80002958:	b9407800 	ldr	w0, [x0, #120]
ffffffff8000295c:	2a0003e0 	mov	w0, w0
ffffffff80002960:	f94067e1 	ldr	x1, [sp, #200]
ffffffff80002964:	eb00003f 	cmp	x1, x0
ffffffff80002968:	54fffe83 	b.cc	ffffffff80002938 <control_sequence_parse+0x784>  // b.lo, b.ul, b.last
ffffffff8000296c:	14000205 	b	ffffffff80003180 <control_sequence_parse+0xfcc>
ffffffff80002970:	f9400fe0 	ldr	x0, [sp, #24]
ffffffff80002974:	f9403400 	ldr	x0, [x0, #104]
ffffffff80002978:	f90033e0 	str	x0, [sp, #96]
ffffffff8000297c:	f94017e1 	ldr	x1, [sp, #40]
ffffffff80002980:	f9400fe0 	ldr	x0, [sp, #24]
ffffffff80002984:	f9003401 	str	x1, [x0, #104]
ffffffff80002988:	f90063ff 	str	xzr, [sp, #192]
ffffffff8000298c:	14000008 	b	ffffffff800029ac <control_sequence_parse+0x7f8>
ffffffff80002990:	f9400fe0 	ldr	x0, [sp, #24]
ffffffff80002994:	f940b801 	ldr	x1, [x0, #368]
ffffffff80002998:	f9400fe0 	ldr	x0, [sp, #24]
ffffffff8000299c:	d63f0020 	blr	x1
ffffffff800029a0:	f94063e0 	ldr	x0, [sp, #192]
ffffffff800029a4:	91000400 	add	x0, x0, #0x1
ffffffff800029a8:	f90063e0 	str	x0, [sp, #192]
ffffffff800029ac:	f9400fe0 	ldr	x0, [sp, #24]
ffffffff800029b0:	b9407800 	ldr	w0, [x0, #120]
ffffffff800029b4:	2a0003e0 	mov	w0, w0
ffffffff800029b8:	f94063e1 	ldr	x1, [sp, #192]
ffffffff800029bc:	eb00003f 	cmp	x1, x0
ffffffff800029c0:	54fffe83 	b.cc	ffffffff80002990 <control_sequence_parse+0x7dc>  // b.lo, b.ul, b.last
ffffffff800029c4:	f9400fe0 	ldr	x0, [sp, #24]
ffffffff800029c8:	f94033e1 	ldr	x1, [sp, #96]
ffffffff800029cc:	f9003401 	str	x1, [x0, #104]
ffffffff800029d0:	140001ec 	b	ffffffff80003180 <control_sequence_parse+0xfcc>
ffffffff800029d4:	f9400fe0 	ldr	x0, [sp, #24]
ffffffff800029d8:	b9407800 	ldr	w0, [x0, #120]
ffffffff800029dc:	7100141f 	cmp	w0, #0x5
ffffffff800029e0:	54000080 	b.eq	ffffffff800029f0 <control_sequence_parse+0x83c>  // b.none
ffffffff800029e4:	7100181f 	cmp	w0, #0x6
ffffffff800029e8:	540001e0 	b.eq	ffffffff80002a24 <control_sequence_parse+0x870>  // b.none
ffffffff800029ec:	140001e5 	b	ffffffff80003180 <control_sequence_parse+0xfcc>
ffffffff800029f0:	f9400fe0 	ldr	x0, [sp, #24]
ffffffff800029f4:	f940d400 	ldr	x0, [x0, #424]
ffffffff800029f8:	f100001f 	cmp	x0, #0x0
ffffffff800029fc:	54000360 	b.eq	ffffffff80002a68 <control_sequence_parse+0x8b4>  // b.none
ffffffff80002a00:	f9400fe0 	ldr	x0, [sp, #24]
ffffffff80002a04:	f940d405 	ldr	x5, [x0, #424]
ffffffff80002a08:	d2800004 	mov	x4, #0x0                   	// #0
ffffffff80002a0c:	d2800003 	mov	x3, #0x0                   	// #0
ffffffff80002a10:	d2800002 	mov	x2, #0x0                   	// #0
ffffffff80002a14:	d2800501 	mov	x1, #0x28                  	// #40
ffffffff80002a18:	f9400fe0 	ldr	x0, [sp, #24]
ffffffff80002a1c:	d63f00a0 	blr	x5
ffffffff80002a20:	14000012 	b	ffffffff80002a68 <control_sequence_parse+0x8b4>
ffffffff80002a24:	f9400fe0 	ldr	x0, [sp, #24]
ffffffff80002a28:	f940d400 	ldr	x0, [x0, #424]
ffffffff80002a2c:	f100001f 	cmp	x0, #0x0
ffffffff80002a30:	54000200 	b.eq	ffffffff80002a70 <control_sequence_parse+0x8bc>  // b.none
ffffffff80002a34:	f9400fe0 	ldr	x0, [sp, #24]
ffffffff80002a38:	f940d405 	ldr	x5, [x0, #424]
ffffffff80002a3c:	f9401be0 	ldr	x0, [sp, #48]
ffffffff80002a40:	91000401 	add	x1, x0, #0x1
ffffffff80002a44:	f94017e0 	ldr	x0, [sp, #40]
ffffffff80002a48:	91000400 	add	x0, x0, #0x1
ffffffff80002a4c:	d2800004 	mov	x4, #0x0                   	// #0
ffffffff80002a50:	aa0003e3 	mov	x3, x0
ffffffff80002a54:	aa0103e2 	mov	x2, x1
ffffffff80002a58:	d2800641 	mov	x1, #0x32                  	// #50
ffffffff80002a5c:	f9400fe0 	ldr	x0, [sp, #24]
ffffffff80002a60:	d63f00a0 	blr	x5
ffffffff80002a64:	14000003 	b	ffffffff80002a70 <control_sequence_parse+0x8bc>
ffffffff80002a68:	d503201f 	nop
ffffffff80002a6c:	140001c5 	b	ffffffff80003180 <control_sequence_parse+0xfcc>
ffffffff80002a70:	d503201f 	nop
ffffffff80002a74:	140001c3 	b	ffffffff80003180 <control_sequence_parse+0xfcc>
ffffffff80002a78:	f9400fe0 	ldr	x0, [sp, #24]
ffffffff80002a7c:	f940d400 	ldr	x0, [x0, #424]
ffffffff80002a80:	f100001f 	cmp	x0, #0x0
ffffffff80002a84:	54003740 	b.eq	ffffffff8000316c <control_sequence_parse+0xfb8>  // b.none
ffffffff80002a88:	f9400fe0 	ldr	x0, [sp, #24]
ffffffff80002a8c:	f940d405 	ldr	x5, [x0, #424]
ffffffff80002a90:	f9400fe0 	ldr	x0, [sp, #24]
ffffffff80002a94:	b9407800 	ldr	w0, [x0, #120]
ffffffff80002a98:	2a0003e0 	mov	w0, w0
ffffffff80002a9c:	d2800004 	mov	x4, #0x0                   	// #0
ffffffff80002aa0:	d2800003 	mov	x3, #0x0                   	// #0
ffffffff80002aa4:	aa0003e2 	mov	x2, x0
ffffffff80002aa8:	d2800781 	mov	x1, #0x3c                  	// #60
ffffffff80002aac:	f9400fe0 	ldr	x0, [sp, #24]
ffffffff80002ab0:	d63f00a0 	blr	x5
ffffffff80002ab4:	140001ae 	b	ffffffff8000316c <control_sequence_parse+0xfb8>
ffffffff80002ab8:	f9400fe0 	ldr	x0, [sp, #24]
ffffffff80002abc:	b9407800 	ldr	w0, [x0, #120]
ffffffff80002ac0:	71000c1f 	cmp	w0, #0x3
ffffffff80002ac4:	54003588 	b.hi	ffffffff80003174 <control_sequence_parse+0xfc0>  // b.pmore
ffffffff80002ac8:	7100081f 	cmp	w0, #0x2
ffffffff80002acc:	54000d62 	b.cs	ffffffff80002c78 <control_sequence_parse+0xac4>  // b.hs, b.nlast
ffffffff80002ad0:	7100001f 	cmp	w0, #0x0
ffffffff80002ad4:	54000080 	b.eq	ffffffff80002ae4 <control_sequence_parse+0x930>  // b.none
ffffffff80002ad8:	7100041f 	cmp	w0, #0x1
ffffffff80002adc:	540005a0 	b.eq	ffffffff80002b90 <control_sequence_parse+0x9dc>  // b.none
ffffffff80002ae0:	140001a5 	b	ffffffff80003174 <control_sequence_parse+0xfc0>
ffffffff80002ae4:	f9400fe0 	ldr	x0, [sp, #24]
ffffffff80002ae8:	f9407001 	ldr	x1, [x0, #224]
ffffffff80002aec:	f94017e0 	ldr	x0, [sp, #40]
ffffffff80002af0:	cb000020 	sub	x0, x1, x0
ffffffff80002af4:	d1000400 	sub	x0, x0, #0x1
ffffffff80002af8:	f9002fe0 	str	x0, [sp, #88]
ffffffff80002afc:	f9400fe0 	ldr	x0, [sp, #24]
ffffffff80002b00:	f9407401 	ldr	x1, [x0, #232]
ffffffff80002b04:	f9401be0 	ldr	x0, [sp, #48]
ffffffff80002b08:	cb000020 	sub	x0, x1, x0
ffffffff80002b0c:	d1000400 	sub	x0, x0, #0x1
ffffffff80002b10:	f9002be0 	str	x0, [sp, #80]
ffffffff80002b14:	f9400fe0 	ldr	x0, [sp, #24]
ffffffff80002b18:	f9407401 	ldr	x1, [x0, #232]
ffffffff80002b1c:	f9402fe0 	ldr	x0, [sp, #88]
ffffffff80002b20:	9b007c21 	mul	x1, x1, x0
ffffffff80002b24:	f9402be0 	ldr	x0, [sp, #80]
ffffffff80002b28:	8b000020 	add	x0, x1, x0
ffffffff80002b2c:	91000400 	add	x0, x0, #0x1
ffffffff80002b30:	f90027e0 	str	x0, [sp, #72]
ffffffff80002b34:	f9005fff 	str	xzr, [sp, #184]
ffffffff80002b38:	14000009 	b	ffffffff80002b5c <control_sequence_parse+0x9a8>
ffffffff80002b3c:	f9400fe0 	ldr	x0, [sp, #24]
ffffffff80002b40:	f9407802 	ldr	x2, [x0, #240]
ffffffff80002b44:	52800401 	mov	w1, #0x20                  	// #32
ffffffff80002b48:	f9400fe0 	ldr	x0, [sp, #24]
ffffffff80002b4c:	d63f0040 	blr	x2
ffffffff80002b50:	f9405fe0 	ldr	x0, [sp, #184]
ffffffff80002b54:	91000400 	add	x0, x0, #0x1
ffffffff80002b58:	f9005fe0 	str	x0, [sp, #184]
ffffffff80002b5c:	f9405fe1 	ldr	x1, [sp, #184]
ffffffff80002b60:	f94027e0 	ldr	x0, [sp, #72]
ffffffff80002b64:	eb00003f 	cmp	x1, x0
ffffffff80002b68:	54fffea3 	b.cc	ffffffff80002b3c <control_sequence_parse+0x988>  // b.lo, b.ul, b.last
ffffffff80002b6c:	f9400fe0 	ldr	x0, [sp, #24]
ffffffff80002b70:	f9408003 	ldr	x3, [x0, #256]
ffffffff80002b74:	f9401be0 	ldr	x0, [sp, #48]
ffffffff80002b78:	f94017e1 	ldr	x1, [sp, #40]
ffffffff80002b7c:	aa0103e2 	mov	x2, x1
ffffffff80002b80:	aa0003e1 	mov	x1, x0
ffffffff80002b84:	f9400fe0 	ldr	x0, [sp, #24]
ffffffff80002b88:	d63f0060 	blr	x3
ffffffff80002b8c:	14000041 	b	ffffffff80002c90 <control_sequence_parse+0xadc>
ffffffff80002b90:	f9400fe0 	ldr	x0, [sp, #24]
ffffffff80002b94:	f9408003 	ldr	x3, [x0, #256]
ffffffff80002b98:	d2800002 	mov	x2, #0x0                   	// #0
ffffffff80002b9c:	d2800001 	mov	x1, #0x0                   	// #0
ffffffff80002ba0:	f9400fe0 	ldr	x0, [sp, #24]
ffffffff80002ba4:	d63f0060 	blr	x3
ffffffff80002ba8:	3902dfff 	strb	wzr, [sp, #183]
ffffffff80002bac:	f90057ff 	str	xzr, [sp, #168]
ffffffff80002bb0:	1400002a 	b	ffffffff80002c58 <control_sequence_parse+0xaa4>
ffffffff80002bb4:	f90053ff 	str	xzr, [sp, #160]
ffffffff80002bb8:	1400001c 	b	ffffffff80002c28 <control_sequence_parse+0xa74>
ffffffff80002bbc:	f9400fe0 	ldr	x0, [sp, #24]
ffffffff80002bc0:	f9407802 	ldr	x2, [x0, #240]
ffffffff80002bc4:	52800401 	mov	w1, #0x20                  	// #32
ffffffff80002bc8:	f9400fe0 	ldr	x0, [sp, #24]
ffffffff80002bcc:	d63f0040 	blr	x2
ffffffff80002bd0:	f9401be0 	ldr	x0, [sp, #48]
ffffffff80002bd4:	f94053e1 	ldr	x1, [sp, #160]
ffffffff80002bd8:	eb00003f 	cmp	x1, x0
ffffffff80002bdc:	54000201 	b.ne	ffffffff80002c1c <control_sequence_parse+0xa68>  // b.any
ffffffff80002be0:	f94017e0 	ldr	x0, [sp, #40]
ffffffff80002be4:	f94057e1 	ldr	x1, [sp, #168]
ffffffff80002be8:	eb00003f 	cmp	x1, x0
ffffffff80002bec:	54000181 	b.ne	ffffffff80002c1c <control_sequence_parse+0xa68>  // b.any
ffffffff80002bf0:	f9400fe0 	ldr	x0, [sp, #24]
ffffffff80002bf4:	f9408003 	ldr	x3, [x0, #256]
ffffffff80002bf8:	f9401be0 	ldr	x0, [sp, #48]
ffffffff80002bfc:	f94017e1 	ldr	x1, [sp, #40]
ffffffff80002c00:	aa0103e2 	mov	x2, x1
ffffffff80002c04:	aa0003e1 	mov	x1, x0
ffffffff80002c08:	f9400fe0 	ldr	x0, [sp, #24]
ffffffff80002c0c:	d63f0060 	blr	x3
ffffffff80002c10:	52800020 	mov	w0, #0x1                   	// #1
ffffffff80002c14:	3902dfe0 	strb	w0, [sp, #183]
ffffffff80002c18:	14000009 	b	ffffffff80002c3c <control_sequence_parse+0xa88>
ffffffff80002c1c:	f94053e0 	ldr	x0, [sp, #160]
ffffffff80002c20:	91000400 	add	x0, x0, #0x1
ffffffff80002c24:	f90053e0 	str	x0, [sp, #160]
ffffffff80002c28:	f9400fe0 	ldr	x0, [sp, #24]
ffffffff80002c2c:	f9407400 	ldr	x0, [x0, #232]
ffffffff80002c30:	f94053e1 	ldr	x1, [sp, #160]
ffffffff80002c34:	eb00003f 	cmp	x1, x0
ffffffff80002c38:	54fffc23 	b.cc	ffffffff80002bbc <control_sequence_parse+0xa08>  // b.lo, b.ul, b.last
ffffffff80002c3c:	3942dfe0 	ldrb	w0, [sp, #183]
ffffffff80002c40:	12000000 	and	w0, w0, #0x1
ffffffff80002c44:	7100001f 	cmp	w0, #0x0
ffffffff80002c48:	54000141 	b.ne	ffffffff80002c70 <control_sequence_parse+0xabc>  // b.any
ffffffff80002c4c:	f94057e0 	ldr	x0, [sp, #168]
ffffffff80002c50:	91000400 	add	x0, x0, #0x1
ffffffff80002c54:	f90057e0 	str	x0, [sp, #168]
ffffffff80002c58:	f9400fe0 	ldr	x0, [sp, #24]
ffffffff80002c5c:	f9407000 	ldr	x0, [x0, #224]
ffffffff80002c60:	f94057e1 	ldr	x1, [sp, #168]
ffffffff80002c64:	eb00003f 	cmp	x1, x0
ffffffff80002c68:	54fffa63 	b.cc	ffffffff80002bb4 <control_sequence_parse+0xa00>  // b.lo, b.ul, b.last
ffffffff80002c6c:	14000009 	b	ffffffff80002c90 <control_sequence_parse+0xadc>
ffffffff80002c70:	d503201f 	nop
ffffffff80002c74:	14000007 	b	ffffffff80002c90 <control_sequence_parse+0xadc>
ffffffff80002c78:	f9400fe0 	ldr	x0, [sp, #24]
ffffffff80002c7c:	f9407c02 	ldr	x2, [x0, #248]
ffffffff80002c80:	52800001 	mov	w1, #0x0                   	// #0
ffffffff80002c84:	f9400fe0 	ldr	x0, [sp, #24]
ffffffff80002c88:	d63f0040 	blr	x2
ffffffff80002c8c:	d503201f 	nop
ffffffff80002c90:	14000139 	b	ffffffff80003174 <control_sequence_parse+0xfc0>
ffffffff80002c94:	f9400fe0 	ldr	x0, [sp, #24]
ffffffff80002c98:	f9407400 	ldr	x0, [x0, #232]
ffffffff80002c9c:	d1000400 	sub	x0, x0, #0x1
ffffffff80002ca0:	f9004fe0 	str	x0, [sp, #152]
ffffffff80002ca4:	f9400fe0 	ldr	x0, [sp, #24]
ffffffff80002ca8:	f940b005 	ldr	x5, [x0, #352]
ffffffff80002cac:	f9400fe0 	ldr	x0, [sp, #24]
ffffffff80002cb0:	b9407800 	ldr	w0, [x0, #120]
ffffffff80002cb4:	2a0003e1 	mov	w1, w0
ffffffff80002cb8:	f9404fe0 	ldr	x0, [sp, #152]
ffffffff80002cbc:	8b000020 	add	x0, x1, x0
ffffffff80002cc0:	f94017e1 	ldr	x1, [sp, #40]
ffffffff80002cc4:	f94017e2 	ldr	x2, [sp, #40]
ffffffff80002cc8:	aa0203e4 	mov	x4, x2
ffffffff80002ccc:	f9404fe3 	ldr	x3, [sp, #152]
ffffffff80002cd0:	aa0103e2 	mov	x2, x1
ffffffff80002cd4:	aa0003e1 	mov	x1, x0
ffffffff80002cd8:	f9400fe0 	ldr	x0, [sp, #24]
ffffffff80002cdc:	d63f00a0 	blr	x5
ffffffff80002ce0:	f9400fe0 	ldr	x0, [sp, #24]
ffffffff80002ce4:	f9408003 	ldr	x3, [x0, #256]
ffffffff80002ce8:	f94017e0 	ldr	x0, [sp, #40]
ffffffff80002cec:	aa0003e2 	mov	x2, x0
ffffffff80002cf0:	f9404fe1 	ldr	x1, [sp, #152]
ffffffff80002cf4:	f9400fe0 	ldr	x0, [sp, #24]
ffffffff80002cf8:	d63f0060 	blr	x3
ffffffff80002cfc:	f9400fe0 	ldr	x0, [sp, #24]
ffffffff80002d00:	f9407802 	ldr	x2, [x0, #240]
ffffffff80002d04:	52800401 	mov	w1, #0x20                  	// #32
ffffffff80002d08:	f9400fe0 	ldr	x0, [sp, #24]
ffffffff80002d0c:	d63f0040 	blr	x2
ffffffff80002d10:	f9401be0 	ldr	x0, [sp, #48]
ffffffff80002d14:	f9404fe1 	ldr	x1, [sp, #152]
ffffffff80002d18:	eb00003f 	cmp	x1, x0
ffffffff80002d1c:	540000a0 	b.eq	ffffffff80002d30 <control_sequence_parse+0xb7c>  // b.none
ffffffff80002d20:	f9404fe0 	ldr	x0, [sp, #152]
ffffffff80002d24:	d1000400 	sub	x0, x0, #0x1
ffffffff80002d28:	f9004fe0 	str	x0, [sp, #152]
ffffffff80002d2c:	17ffffde 	b	ffffffff80002ca4 <control_sequence_parse+0xaf0>
ffffffff80002d30:	d503201f 	nop
ffffffff80002d34:	f9400fe0 	ldr	x0, [sp, #24]
ffffffff80002d38:	f9408003 	ldr	x3, [x0, #256]
ffffffff80002d3c:	f9401be0 	ldr	x0, [sp, #48]
ffffffff80002d40:	f94017e1 	ldr	x1, [sp, #40]
ffffffff80002d44:	aa0103e2 	mov	x2, x1
ffffffff80002d48:	aa0003e1 	mov	x1, x0
ffffffff80002d4c:	f9400fe0 	ldr	x0, [sp, #24]
ffffffff80002d50:	d63f0060 	blr	x3
ffffffff80002d54:	1400010b 	b	ffffffff80003180 <control_sequence_parse+0xfcc>
ffffffff80002d58:	f9400fe0 	ldr	x0, [sp, #24]
ffffffff80002d5c:	b9407800 	ldr	w0, [x0, #120]
ffffffff80002d60:	2a0003e1 	mov	w1, w0
ffffffff80002d64:	f9401be0 	ldr	x0, [sp, #48]
ffffffff80002d68:	8b000020 	add	x0, x1, x0
ffffffff80002d6c:	f9004be0 	str	x0, [sp, #144]
ffffffff80002d70:	14000013 	b	ffffffff80002dbc <control_sequence_parse+0xc08>
ffffffff80002d74:	f9400fe0 	ldr	x0, [sp, #24]
ffffffff80002d78:	f940b005 	ldr	x5, [x0, #352]
ffffffff80002d7c:	f9400fe0 	ldr	x0, [sp, #24]
ffffffff80002d80:	b9407800 	ldr	w0, [x0, #120]
ffffffff80002d84:	2a0003e0 	mov	w0, w0
ffffffff80002d88:	f9404be1 	ldr	x1, [sp, #144]
ffffffff80002d8c:	cb000020 	sub	x0, x1, x0
ffffffff80002d90:	f94017e1 	ldr	x1, [sp, #40]
ffffffff80002d94:	f94017e2 	ldr	x2, [sp, #40]
ffffffff80002d98:	aa0203e4 	mov	x4, x2
ffffffff80002d9c:	f9404be3 	ldr	x3, [sp, #144]
ffffffff80002da0:	aa0103e2 	mov	x2, x1
ffffffff80002da4:	aa0003e1 	mov	x1, x0
ffffffff80002da8:	f9400fe0 	ldr	x0, [sp, #24]
ffffffff80002dac:	d63f00a0 	blr	x5
ffffffff80002db0:	f9404be0 	ldr	x0, [sp, #144]
ffffffff80002db4:	91000400 	add	x0, x0, #0x1
ffffffff80002db8:	f9004be0 	str	x0, [sp, #144]
ffffffff80002dbc:	f9400fe0 	ldr	x0, [sp, #24]
ffffffff80002dc0:	f9407400 	ldr	x0, [x0, #232]
ffffffff80002dc4:	f9404be1 	ldr	x1, [sp, #144]
ffffffff80002dc8:	eb00003f 	cmp	x1, x0
ffffffff80002dcc:	54fffd43 	b.cc	ffffffff80002d74 <control_sequence_parse+0xbc0>  // b.lo, b.ul, b.last
ffffffff80002dd0:	f9400fe0 	ldr	x0, [sp, #24]
ffffffff80002dd4:	f9408003 	ldr	x3, [x0, #256]
ffffffff80002dd8:	f9400fe0 	ldr	x0, [sp, #24]
ffffffff80002ddc:	f9407401 	ldr	x1, [x0, #232]
ffffffff80002de0:	f9400fe0 	ldr	x0, [sp, #24]
ffffffff80002de4:	b9407800 	ldr	w0, [x0, #120]
ffffffff80002de8:	2a0003e0 	mov	w0, w0
ffffffff80002dec:	cb000020 	sub	x0, x1, x0
ffffffff80002df0:	f94017e1 	ldr	x1, [sp, #40]
ffffffff80002df4:	aa0103e2 	mov	x2, x1
ffffffff80002df8:	aa0003e1 	mov	x1, x0
ffffffff80002dfc:	f9400fe0 	ldr	x0, [sp, #24]
ffffffff80002e00:	d63f0060 	blr	x3
ffffffff80002e04:	f90047ff 	str	xzr, [sp, #136]
ffffffff80002e08:	14000009 	b	ffffffff80002e2c <control_sequence_parse+0xc78>
ffffffff80002e0c:	f9400fe0 	ldr	x0, [sp, #24]
ffffffff80002e10:	f9407802 	ldr	x2, [x0, #240]
ffffffff80002e14:	52800401 	mov	w1, #0x20                  	// #32
ffffffff80002e18:	f9400fe0 	ldr	x0, [sp, #24]
ffffffff80002e1c:	d63f0040 	blr	x2
ffffffff80002e20:	f94047e0 	ldr	x0, [sp, #136]
ffffffff80002e24:	91000400 	add	x0, x0, #0x1
ffffffff80002e28:	f90047e0 	str	x0, [sp, #136]
ffffffff80002e2c:	f9400fe0 	ldr	x0, [sp, #24]
ffffffff80002e30:	b9407800 	ldr	w0, [x0, #120]
ffffffff80002e34:	2a0003e0 	mov	w0, w0
ffffffff80002e38:	f94047e1 	ldr	x1, [sp, #136]
ffffffff80002e3c:	eb00003f 	cmp	x1, x0
ffffffff80002e40:	54fffe63 	b.cc	ffffffff80002e0c <control_sequence_parse+0xc58>  // b.lo, b.ul, b.last
ffffffff80002e44:	f9400fe0 	ldr	x0, [sp, #24]
ffffffff80002e48:	f9408003 	ldr	x3, [x0, #256]
ffffffff80002e4c:	f9401be0 	ldr	x0, [sp, #48]
ffffffff80002e50:	f94017e1 	ldr	x1, [sp, #40]
ffffffff80002e54:	aa0103e2 	mov	x2, x1
ffffffff80002e58:	aa0003e1 	mov	x1, x0
ffffffff80002e5c:	f9400fe0 	ldr	x0, [sp, #24]
ffffffff80002e60:	d63f0060 	blr	x3
ffffffff80002e64:	140000c7 	b	ffffffff80003180 <control_sequence_parse+0xfcc>
ffffffff80002e68:	f9400fe0 	ldr	x0, [sp, #24]
ffffffff80002e6c:	97fff8b9 	bl	ffffffff80001150 <sgr>
ffffffff80002e70:	140000c4 	b	ffffffff80003180 <control_sequence_parse+0xfcc>
ffffffff80002e74:	f9400fe0 	ldr	x0, [sp, #24]
ffffffff80002e78:	f9408403 	ldr	x3, [x0, #264]
ffffffff80002e7c:	f9400fe0 	ldr	x0, [sp, #24]
ffffffff80002e80:	91012001 	add	x1, x0, #0x48
ffffffff80002e84:	f9400fe0 	ldr	x0, [sp, #24]
ffffffff80002e88:	91014000 	add	x0, x0, #0x50
ffffffff80002e8c:	aa0003e2 	mov	x2, x0
ffffffff80002e90:	f9400fe0 	ldr	x0, [sp, #24]
ffffffff80002e94:	d63f0060 	blr	x3
ffffffff80002e98:	140000ba 	b	ffffffff80003180 <control_sequence_parse+0xfcc>
ffffffff80002e9c:	f9400fe0 	ldr	x0, [sp, #24]
ffffffff80002ea0:	f9408003 	ldr	x3, [x0, #256]
ffffffff80002ea4:	f9400fe0 	ldr	x0, [sp, #24]
ffffffff80002ea8:	f9402401 	ldr	x1, [x0, #72]
ffffffff80002eac:	f9400fe0 	ldr	x0, [sp, #24]
ffffffff80002eb0:	f9402800 	ldr	x0, [x0, #80]
ffffffff80002eb4:	aa0003e2 	mov	x2, x0
ffffffff80002eb8:	f9400fe0 	ldr	x0, [sp, #24]
ffffffff80002ebc:	d63f0060 	blr	x3
ffffffff80002ec0:	140000b0 	b	ffffffff80003180 <control_sequence_parse+0xfcc>
ffffffff80002ec4:	f9400fe0 	ldr	x0, [sp, #24]
ffffffff80002ec8:	b9407800 	ldr	w0, [x0, #120]
ffffffff80002ecc:	7100081f 	cmp	w0, #0x2
ffffffff80002ed0:	540006e0 	b.eq	ffffffff80002fac <control_sequence_parse+0xdf8>  // b.none
ffffffff80002ed4:	7100081f 	cmp	w0, #0x2
ffffffff80002ed8:	54001528 	b.hi	ffffffff8000317c <control_sequence_parse+0xfc8>  // b.pmore
ffffffff80002edc:	7100001f 	cmp	w0, #0x0
ffffffff80002ee0:	54000080 	b.eq	ffffffff80002ef0 <control_sequence_parse+0xd3c>  // b.none
ffffffff80002ee4:	7100041f 	cmp	w0, #0x1
ffffffff80002ee8:	54000360 	b.eq	ffffffff80002f54 <control_sequence_parse+0xda0>  // b.none
ffffffff80002eec:	140000a4 	b	ffffffff8000317c <control_sequence_parse+0xfc8>
ffffffff80002ef0:	f9401be0 	ldr	x0, [sp, #48]
ffffffff80002ef4:	f90043e0 	str	x0, [sp, #128]
ffffffff80002ef8:	14000009 	b	ffffffff80002f1c <control_sequence_parse+0xd68>
ffffffff80002efc:	f9400fe0 	ldr	x0, [sp, #24]
ffffffff80002f00:	f9407802 	ldr	x2, [x0, #240]
ffffffff80002f04:	52800401 	mov	w1, #0x20                  	// #32
ffffffff80002f08:	f9400fe0 	ldr	x0, [sp, #24]
ffffffff80002f0c:	d63f0040 	blr	x2
ffffffff80002f10:	f94043e0 	ldr	x0, [sp, #128]
ffffffff80002f14:	91000400 	add	x0, x0, #0x1
ffffffff80002f18:	f90043e0 	str	x0, [sp, #128]
ffffffff80002f1c:	f9400fe0 	ldr	x0, [sp, #24]
ffffffff80002f20:	f9407400 	ldr	x0, [x0, #232]
ffffffff80002f24:	f94043e1 	ldr	x1, [sp, #128]
ffffffff80002f28:	eb00003f 	cmp	x1, x0
ffffffff80002f2c:	54fffe83 	b.cc	ffffffff80002efc <control_sequence_parse+0xd48>  // b.lo, b.ul, b.last
ffffffff80002f30:	f9400fe0 	ldr	x0, [sp, #24]
ffffffff80002f34:	f9408003 	ldr	x3, [x0, #256]
ffffffff80002f38:	f9401be0 	ldr	x0, [sp, #48]
ffffffff80002f3c:	f94017e1 	ldr	x1, [sp, #40]
ffffffff80002f40:	aa0103e2 	mov	x2, x1
ffffffff80002f44:	aa0003e1 	mov	x1, x0
ffffffff80002f48:	f9400fe0 	ldr	x0, [sp, #24]
ffffffff80002f4c:	d63f0060 	blr	x3
ffffffff80002f50:	14000036 	b	ffffffff80003028 <control_sequence_parse+0xe74>
ffffffff80002f54:	f9400fe0 	ldr	x0, [sp, #24]
ffffffff80002f58:	f9408003 	ldr	x3, [x0, #256]
ffffffff80002f5c:	f94017e0 	ldr	x0, [sp, #40]
ffffffff80002f60:	aa0003e2 	mov	x2, x0
ffffffff80002f64:	d2800001 	mov	x1, #0x0                   	// #0
ffffffff80002f68:	f9400fe0 	ldr	x0, [sp, #24]
ffffffff80002f6c:	d63f0060 	blr	x3
ffffffff80002f70:	f9003fff 	str	xzr, [sp, #120]
ffffffff80002f74:	14000009 	b	ffffffff80002f98 <control_sequence_parse+0xde4>
ffffffff80002f78:	f9400fe0 	ldr	x0, [sp, #24]
ffffffff80002f7c:	f9407802 	ldr	x2, [x0, #240]
ffffffff80002f80:	52800401 	mov	w1, #0x20                  	// #32
ffffffff80002f84:	f9400fe0 	ldr	x0, [sp, #24]
ffffffff80002f88:	d63f0040 	blr	x2
ffffffff80002f8c:	f9403fe0 	ldr	x0, [sp, #120]
ffffffff80002f90:	91000400 	add	x0, x0, #0x1
ffffffff80002f94:	f9003fe0 	str	x0, [sp, #120]
ffffffff80002f98:	f9401be0 	ldr	x0, [sp, #48]
ffffffff80002f9c:	f9403fe1 	ldr	x1, [sp, #120]
ffffffff80002fa0:	eb00003f 	cmp	x1, x0
ffffffff80002fa4:	54fffea3 	b.cc	ffffffff80002f78 <control_sequence_parse+0xdc4>  // b.lo, b.ul, b.last
ffffffff80002fa8:	14000020 	b	ffffffff80003028 <control_sequence_parse+0xe74>
ffffffff80002fac:	f9400fe0 	ldr	x0, [sp, #24]
ffffffff80002fb0:	f9408003 	ldr	x3, [x0, #256]
ffffffff80002fb4:	f94017e0 	ldr	x0, [sp, #40]
ffffffff80002fb8:	aa0003e2 	mov	x2, x0
ffffffff80002fbc:	d2800001 	mov	x1, #0x0                   	// #0
ffffffff80002fc0:	f9400fe0 	ldr	x0, [sp, #24]
ffffffff80002fc4:	d63f0060 	blr	x3
ffffffff80002fc8:	f9003bff 	str	xzr, [sp, #112]
ffffffff80002fcc:	14000009 	b	ffffffff80002ff0 <control_sequence_parse+0xe3c>
ffffffff80002fd0:	f9400fe0 	ldr	x0, [sp, #24]
ffffffff80002fd4:	f9407802 	ldr	x2, [x0, #240]
ffffffff80002fd8:	52800401 	mov	w1, #0x20                  	// #32
ffffffff80002fdc:	f9400fe0 	ldr	x0, [sp, #24]
ffffffff80002fe0:	d63f0040 	blr	x2
ffffffff80002fe4:	f9403be0 	ldr	x0, [sp, #112]
ffffffff80002fe8:	91000400 	add	x0, x0, #0x1
ffffffff80002fec:	f9003be0 	str	x0, [sp, #112]
ffffffff80002ff0:	f9400fe0 	ldr	x0, [sp, #24]
ffffffff80002ff4:	f9407400 	ldr	x0, [x0, #232]
ffffffff80002ff8:	f9403be1 	ldr	x1, [sp, #112]
ffffffff80002ffc:	eb00003f 	cmp	x1, x0
ffffffff80003000:	54fffe83 	b.cc	ffffffff80002fd0 <control_sequence_parse+0xe1c>  // b.lo, b.ul, b.last
ffffffff80003004:	f9400fe0 	ldr	x0, [sp, #24]
ffffffff80003008:	f9408003 	ldr	x3, [x0, #256]
ffffffff8000300c:	f9401be0 	ldr	x0, [sp, #48]
ffffffff80003010:	f94017e1 	ldr	x1, [sp, #40]
ffffffff80003014:	aa0103e2 	mov	x2, x1
ffffffff80003018:	aa0003e1 	mov	x1, x0
ffffffff8000301c:	f9400fe0 	ldr	x0, [sp, #24]
ffffffff80003020:	d63f0060 	blr	x3
ffffffff80003024:	d503201f 	nop
ffffffff80003028:	14000055 	b	ffffffff8000317c <control_sequence_parse+0xfc8>
ffffffff8000302c:	f9400fe0 	ldr	x0, [sp, #24]
ffffffff80003030:	b9407800 	ldr	w0, [x0, #120]
ffffffff80003034:	7100001f 	cmp	w0, #0x0
ffffffff80003038:	54000081 	b.ne	ffffffff80003048 <control_sequence_parse+0xe94>  // b.any
ffffffff8000303c:	f9400fe0 	ldr	x0, [sp, #24]
ffffffff80003040:	52800021 	mov	w1, #0x1                   	// #1
ffffffff80003044:	b9007801 	str	w1, [x0, #120]
ffffffff80003048:	f9400fe0 	ldr	x0, [sp, #24]
ffffffff8000304c:	b9407c00 	ldr	w0, [x0, #124]
ffffffff80003050:	7100001f 	cmp	w0, #0x0
ffffffff80003054:	54000081 	b.ne	ffffffff80003064 <control_sequence_parse+0xeb0>  // b.any
ffffffff80003058:	f9400fe0 	ldr	x0, [sp, #24]
ffffffff8000305c:	52800021 	mov	w1, #0x1                   	// #1
ffffffff80003060:	b9007c01 	str	w1, [x0, #124]
ffffffff80003064:	f9400fe0 	ldr	x0, [sp, #24]
ffffffff80003068:	f900341f 	str	xzr, [x0, #104]
ffffffff8000306c:	f9400fe0 	ldr	x0, [sp, #24]
ffffffff80003070:	f9407001 	ldr	x1, [x0, #224]
ffffffff80003074:	f9400fe0 	ldr	x0, [sp, #24]
ffffffff80003078:	f9003801 	str	x1, [x0, #112]
ffffffff8000307c:	f9400fe0 	ldr	x0, [sp, #24]
ffffffff80003080:	f9402000 	ldr	x0, [x0, #64]
ffffffff80003084:	f100001f 	cmp	x0, #0x0
ffffffff80003088:	540000e0 	b.eq	ffffffff800030a4 <control_sequence_parse+0xef0>  // b.none
ffffffff8000308c:	f9400fe0 	ldr	x0, [sp, #24]
ffffffff80003090:	b9407800 	ldr	w0, [x0, #120]
ffffffff80003094:	51000400 	sub	w0, w0, #0x1
ffffffff80003098:	2a0003e1 	mov	w1, w0
ffffffff8000309c:	f9400fe0 	ldr	x0, [sp, #24]
ffffffff800030a0:	f9003401 	str	x1, [x0, #104]
ffffffff800030a4:	f9400fe0 	ldr	x0, [sp, #24]
ffffffff800030a8:	f9402000 	ldr	x0, [x0, #64]
ffffffff800030ac:	f100041f 	cmp	x0, #0x1
ffffffff800030b0:	540000c9 	b.ls	ffffffff800030c8 <control_sequence_parse+0xf14>  // b.plast
ffffffff800030b4:	f9400fe0 	ldr	x0, [sp, #24]
ffffffff800030b8:	b9407c00 	ldr	w0, [x0, #124]
ffffffff800030bc:	2a0003e1 	mov	w1, w0
ffffffff800030c0:	f9400fe0 	ldr	x0, [sp, #24]
ffffffff800030c4:	f9003801 	str	x1, [x0, #112]
ffffffff800030c8:	f9400fe0 	ldr	x0, [sp, #24]
ffffffff800030cc:	f9403401 	ldr	x1, [x0, #104]
ffffffff800030d0:	f9400fe0 	ldr	x0, [sp, #24]
ffffffff800030d4:	f9407000 	ldr	x0, [x0, #224]
ffffffff800030d8:	eb00003f 	cmp	x1, x0
ffffffff800030dc:	540001c2 	b.cs	ffffffff80003114 <control_sequence_parse+0xf60>  // b.hs, b.nlast
ffffffff800030e0:	f9400fe0 	ldr	x0, [sp, #24]
ffffffff800030e4:	f9403801 	ldr	x1, [x0, #112]
ffffffff800030e8:	f9400fe0 	ldr	x0, [sp, #24]
ffffffff800030ec:	f9407000 	ldr	x0, [x0, #224]
ffffffff800030f0:	eb00003f 	cmp	x1, x0
ffffffff800030f4:	54000108 	b.hi	ffffffff80003114 <control_sequence_parse+0xf60>  // b.pmore
ffffffff800030f8:	f9400fe0 	ldr	x0, [sp, #24]
ffffffff800030fc:	f9403401 	ldr	x1, [x0, #104]
ffffffff80003100:	f9400fe0 	ldr	x0, [sp, #24]
ffffffff80003104:	f9403800 	ldr	x0, [x0, #112]
ffffffff80003108:	d1000400 	sub	x0, x0, #0x1
ffffffff8000310c:	eb00003f 	cmp	x1, x0
ffffffff80003110:	540000e3 	b.cc	ffffffff8000312c <control_sequence_parse+0xf78>  // b.lo, b.ul, b.last
ffffffff80003114:	f9400fe0 	ldr	x0, [sp, #24]
ffffffff80003118:	f900341f 	str	xzr, [x0, #104]
ffffffff8000311c:	f9400fe0 	ldr	x0, [sp, #24]
ffffffff80003120:	f9407001 	ldr	x1, [x0, #224]
ffffffff80003124:	f9400fe0 	ldr	x0, [sp, #24]
ffffffff80003128:	f9003801 	str	x1, [x0, #112]
ffffffff8000312c:	f9400fe0 	ldr	x0, [sp, #24]
ffffffff80003130:	f9408003 	ldr	x3, [x0, #256]
ffffffff80003134:	d2800002 	mov	x2, #0x0                   	// #0
ffffffff80003138:	d2800001 	mov	x1, #0x0                   	// #0
ffffffff8000313c:	f9400fe0 	ldr	x0, [sp, #24]
ffffffff80003140:	d63f0060 	blr	x3
ffffffff80003144:	1400000f 	b	ffffffff80003180 <control_sequence_parse+0xfcc>
ffffffff80003148:	39405fe1 	ldrb	w1, [sp, #23]
ffffffff8000314c:	f9400fe0 	ldr	x0, [sp, #24]
ffffffff80003150:	97fffbc4 	bl	ffffffff80002060 <mode_toggle>
ffffffff80003154:	1400000b 	b	ffffffff80003180 <control_sequence_parse+0xfcc>
ffffffff80003158:	f9400fe0 	ldr	x0, [sp, #24]
ffffffff8000315c:	97fffba6 	bl	ffffffff80001ff4 <linux_private_parse>
ffffffff80003160:	14000008 	b	ffffffff80003180 <control_sequence_parse+0xfcc>
ffffffff80003164:	d503201f 	nop
ffffffff80003168:	14000006 	b	ffffffff80003180 <control_sequence_parse+0xfcc>
ffffffff8000316c:	d503201f 	nop
ffffffff80003170:	14000004 	b	ffffffff80003180 <control_sequence_parse+0xfcc>
ffffffff80003174:	d503201f 	nop
ffffffff80003178:	14000002 	b	ffffffff80003180 <control_sequence_parse+0xfcc>
ffffffff8000317c:	d503201f 	nop
ffffffff80003180:	f9400fe0 	ldr	x0, [sp, #24]
ffffffff80003184:	3941bfe1 	ldrb	w1, [sp, #111]
ffffffff80003188:	39002801 	strb	w1, [x0, #10]
ffffffff8000318c:	f9400fe0 	ldr	x0, [sp, #24]
ffffffff80003190:	39002c1f 	strb	wzr, [x0, #11]
ffffffff80003194:	f9400fe0 	ldr	x0, [sp, #24]
ffffffff80003198:	3900341f 	strb	wzr, [x0, #13]
ffffffff8000319c:	14000004 	b	ffffffff800031ac <control_sequence_parse+0xff8>
ffffffff800031a0:	d503201f 	nop
ffffffff800031a4:	14000002 	b	ffffffff800031ac <control_sequence_parse+0xff8>
ffffffff800031a8:	d503201f 	nop
ffffffff800031ac:	a8d07bfd 	ldp	x29, x30, [sp], #256
ffffffff800031b0:	d65f03c0 	ret

ffffffff800031b4 <restore_state>:
ffffffff800031b4:	a9be7bfd 	stp	x29, x30, [sp, #-32]!
ffffffff800031b8:	910003fd 	mov	x29, sp
ffffffff800031bc:	f9000fe0 	str	x0, [sp, #24]
ffffffff800031c0:	f9400fe0 	ldr	x0, [sp, #24]
ffffffff800031c4:	39430001 	ldrb	w1, [x0, #192]
ffffffff800031c8:	f9400fe0 	ldr	x0, [sp, #24]
ffffffff800031cc:	39004801 	strb	w1, [x0, #18]
ffffffff800031d0:	f9400fe0 	ldr	x0, [sp, #24]
ffffffff800031d4:	39430401 	ldrb	w1, [x0, #193]
ffffffff800031d8:	f9400fe0 	ldr	x0, [sp, #24]
ffffffff800031dc:	39004c01 	strb	w1, [x0, #19]
ffffffff800031e0:	f9400fe0 	ldr	x0, [sp, #24]
ffffffff800031e4:	39430801 	ldrb	w1, [x0, #194]
ffffffff800031e8:	f9400fe0 	ldr	x0, [sp, #24]
ffffffff800031ec:	39005001 	strb	w1, [x0, #20]
ffffffff800031f0:	f9400fe0 	ldr	x0, [sp, #24]
ffffffff800031f4:	f9406401 	ldr	x1, [x0, #200]
ffffffff800031f8:	f9400fe0 	ldr	x0, [sp, #24]
ffffffff800031fc:	f9001801 	str	x1, [x0, #48]
ffffffff80003200:	f9400fe0 	ldr	x0, [sp, #24]
ffffffff80003204:	f9406801 	ldr	x1, [x0, #208]
ffffffff80003208:	f9400fe0 	ldr	x0, [sp, #24]
ffffffff8000320c:	f9002c01 	str	x1, [x0, #88]
ffffffff80003210:	f9400fe0 	ldr	x0, [sp, #24]
ffffffff80003214:	f9406c01 	ldr	x1, [x0, #216]
ffffffff80003218:	f9400fe0 	ldr	x0, [sp, #24]
ffffffff8000321c:	f9003001 	str	x1, [x0, #96]
ffffffff80003220:	f9400fe0 	ldr	x0, [sp, #24]
ffffffff80003224:	f940c401 	ldr	x1, [x0, #392]
ffffffff80003228:	f9400fe0 	ldr	x0, [sp, #24]
ffffffff8000322c:	d63f0020 	blr	x1
ffffffff80003230:	d503201f 	nop
ffffffff80003234:	a8c27bfd 	ldp	x29, x30, [sp], #32
ffffffff80003238:	d65f03c0 	ret

ffffffff8000323c <save_state>:
ffffffff8000323c:	a9be7bfd 	stp	x29, x30, [sp, #-32]!
ffffffff80003240:	910003fd 	mov	x29, sp
ffffffff80003244:	f9000fe0 	str	x0, [sp, #24]
ffffffff80003248:	f9400fe0 	ldr	x0, [sp, #24]
ffffffff8000324c:	f940c001 	ldr	x1, [x0, #384]
ffffffff80003250:	f9400fe0 	ldr	x0, [sp, #24]
ffffffff80003254:	d63f0020 	blr	x1
ffffffff80003258:	f9400fe0 	ldr	x0, [sp, #24]
ffffffff8000325c:	39404801 	ldrb	w1, [x0, #18]
ffffffff80003260:	f9400fe0 	ldr	x0, [sp, #24]
ffffffff80003264:	39030001 	strb	w1, [x0, #192]
ffffffff80003268:	f9400fe0 	ldr	x0, [sp, #24]
ffffffff8000326c:	39404c01 	ldrb	w1, [x0, #19]
ffffffff80003270:	f9400fe0 	ldr	x0, [sp, #24]
ffffffff80003274:	39030401 	strb	w1, [x0, #193]
ffffffff80003278:	f9400fe0 	ldr	x0, [sp, #24]
ffffffff8000327c:	39405001 	ldrb	w1, [x0, #20]
ffffffff80003280:	f9400fe0 	ldr	x0, [sp, #24]
ffffffff80003284:	39030801 	strb	w1, [x0, #194]
ffffffff80003288:	f9400fe0 	ldr	x0, [sp, #24]
ffffffff8000328c:	f9401801 	ldr	x1, [x0, #48]
ffffffff80003290:	f9400fe0 	ldr	x0, [sp, #24]
ffffffff80003294:	f9006401 	str	x1, [x0, #200]
ffffffff80003298:	f9400fe0 	ldr	x0, [sp, #24]
ffffffff8000329c:	f9402c01 	ldr	x1, [x0, #88]
ffffffff800032a0:	f9400fe0 	ldr	x0, [sp, #24]
ffffffff800032a4:	f9006801 	str	x1, [x0, #208]
ffffffff800032a8:	f9400fe0 	ldr	x0, [sp, #24]
ffffffff800032ac:	f9403001 	ldr	x1, [x0, #96]
ffffffff800032b0:	f9400fe0 	ldr	x0, [sp, #24]
ffffffff800032b4:	f9006c01 	str	x1, [x0, #216]
ffffffff800032b8:	d503201f 	nop
ffffffff800032bc:	a8c27bfd 	ldp	x29, x30, [sp], #32
ffffffff800032c0:	d65f03c0 	ret

ffffffff800032c4 <escape_parse>:
ffffffff800032c4:	a9bc7bfd 	stp	x29, x30, [sp, #-64]!
ffffffff800032c8:	910003fd 	mov	x29, sp
ffffffff800032cc:	f9000fe0 	str	x0, [sp, #24]
ffffffff800032d0:	39005fe1 	strb	w1, [sp, #23]
ffffffff800032d4:	f9400fe0 	ldr	x0, [sp, #24]
ffffffff800032d8:	f9401c00 	ldr	x0, [x0, #56]
ffffffff800032dc:	91000401 	add	x1, x0, #0x1
ffffffff800032e0:	f9400fe0 	ldr	x0, [sp, #24]
ffffffff800032e4:	f9001c01 	str	x1, [x0, #56]
ffffffff800032e8:	f9400fe0 	ldr	x0, [sp, #24]
ffffffff800032ec:	39403800 	ldrb	w0, [x0, #14]
ffffffff800032f0:	12000000 	and	w0, w0, #0x1
ffffffff800032f4:	7100001f 	cmp	w0, #0x0
ffffffff800032f8:	540000a0 	b.eq	ffffffff8000330c <escape_parse+0x48>  // b.none
ffffffff800032fc:	39405fe1 	ldrb	w1, [sp, #23]
ffffffff80003300:	f9400fe0 	ldr	x0, [sp, #24]
ffffffff80003304:	97fffb88 	bl	ffffffff80002124 <osc_parse>
ffffffff80003308:	140000d4 	b	ffffffff80003658 <escape_parse+0x394>
ffffffff8000330c:	f9400fe0 	ldr	x0, [sp, #24]
ffffffff80003310:	39402c00 	ldrb	w0, [x0, #11]
ffffffff80003314:	12000000 	and	w0, w0, #0x1
ffffffff80003318:	7100001f 	cmp	w0, #0x0
ffffffff8000331c:	540000a0 	b.eq	ffffffff80003330 <escape_parse+0x6c>  // b.none
ffffffff80003320:	39405fe1 	ldrb	w1, [sp, #23]
ffffffff80003324:	f9400fe0 	ldr	x0, [sp, #24]
ffffffff80003328:	97fffba3 	bl	ffffffff800021b4 <control_sequence_parse>
ffffffff8000332c:	140000cb 	b	ffffffff80003658 <escape_parse+0x394>
ffffffff80003330:	f9400fe0 	ldr	x0, [sp, #24]
ffffffff80003334:	39403000 	ldrb	w0, [x0, #12]
ffffffff80003338:	12000000 	and	w0, w0, #0x1
ffffffff8000333c:	7100001f 	cmp	w0, #0x0
ffffffff80003340:	54000080 	b.eq	ffffffff80003350 <escape_parse+0x8c>  // b.none
ffffffff80003344:	f9400fe0 	ldr	x0, [sp, #24]
ffffffff80003348:	3900301f 	strb	wzr, [x0, #12]
ffffffff8000334c:	14000038 	b	ffffffff8000342c <escape_parse+0x168>
ffffffff80003350:	f9400fe0 	ldr	x0, [sp, #24]
ffffffff80003354:	f9408403 	ldr	x3, [x0, #264]
ffffffff80003358:	9100a3e1 	add	x1, sp, #0x28
ffffffff8000335c:	9100c3e0 	add	x0, sp, #0x30
ffffffff80003360:	aa0103e2 	mov	x2, x1
ffffffff80003364:	aa0003e1 	mov	x1, x0
ffffffff80003368:	f9400fe0 	ldr	x0, [sp, #24]
ffffffff8000336c:	d63f0060 	blr	x3
ffffffff80003370:	39405fe0 	ldrb	w0, [sp, #23]
ffffffff80003374:	71018c1f 	cmp	w0, #0x63
ffffffff80003378:	54000920 	b.eq	ffffffff8000349c <escape_parse+0x1d8>  // b.none
ffffffff8000337c:	71018c1f 	cmp	w0, #0x63
ffffffff80003380:	5400168c 	b.gt	ffffffff80003650 <escape_parse+0x38c>
ffffffff80003384:	7101741f 	cmp	w0, #0x5d
ffffffff80003388:	54000460 	b.eq	ffffffff80003414 <escape_parse+0x150>  // b.none
ffffffff8000338c:	7101741f 	cmp	w0, #0x5d
ffffffff80003390:	5400160c 	b.gt	ffffffff80003650 <escape_parse+0x38c>
ffffffff80003394:	71016c1f 	cmp	w0, #0x5b
ffffffff80003398:	540004a0 	b.eq	ffffffff8000342c <escape_parse+0x168>  // b.none
ffffffff8000339c:	71016c1f 	cmp	w0, #0x5b
ffffffff800033a0:	5400158c 	b.gt	ffffffff80003650 <escape_parse+0x38c>
ffffffff800033a4:	7101681f 	cmp	w0, #0x5a
ffffffff800033a8:	540012c0 	b.eq	ffffffff80003600 <escape_parse+0x33c>  // b.none
ffffffff800033ac:	7101681f 	cmp	w0, #0x5a
ffffffff800033b0:	5400150c 	b.gt	ffffffff80003650 <escape_parse+0x38c>
ffffffff800033b4:	7101341f 	cmp	w0, #0x4d
ffffffff800033b8:	54000f00 	b.eq	ffffffff80003598 <escape_parse+0x2d4>  // b.none
ffffffff800033bc:	7101341f 	cmp	w0, #0x4d
ffffffff800033c0:	5400148c 	b.gt	ffffffff80003650 <escape_parse+0x38c>
ffffffff800033c4:	7101141f 	cmp	w0, #0x45
ffffffff800033c8:	54000b20 	b.eq	ffffffff8000352c <escape_parse+0x268>  // b.none
ffffffff800033cc:	7101141f 	cmp	w0, #0x45
ffffffff800033d0:	5400140c 	b.gt	ffffffff80003650 <escape_parse+0x38c>
ffffffff800033d4:	7101101f 	cmp	w0, #0x44
ffffffff800033d8:	54000720 	b.eq	ffffffff800034bc <escape_parse+0x1f8>  // b.none
ffffffff800033dc:	7101101f 	cmp	w0, #0x44
ffffffff800033e0:	5400138c 	b.gt	ffffffff80003650 <escape_parse+0x38c>
ffffffff800033e4:	7100e01f 	cmp	w0, #0x38
ffffffff800033e8:	54000540 	b.eq	ffffffff80003490 <escape_parse+0x1cc>  // b.none
ffffffff800033ec:	7100e01f 	cmp	w0, #0x38
ffffffff800033f0:	5400130c 	b.gt	ffffffff80003650 <escape_parse+0x38c>
ffffffff800033f4:	7100a41f 	cmp	w0, #0x29
ffffffff800033f8:	5400008c 	b.gt	ffffffff80003408 <escape_parse+0x144>
ffffffff800033fc:	7100a01f 	cmp	w0, #0x28
ffffffff80003400:	540011aa 	b.ge	ffffffff80003634 <escape_parse+0x370>  // b.tcont
ffffffff80003404:	14000093 	b	ffffffff80003650 <escape_parse+0x38c>
ffffffff80003408:	7100dc1f 	cmp	w0, #0x37
ffffffff8000340c:	540003c0 	b.eq	ffffffff80003484 <escape_parse+0x1c0>  // b.none
ffffffff80003410:	14000090 	b	ffffffff80003650 <escape_parse+0x38c>
ffffffff80003414:	f9400fe0 	ldr	x0, [sp, #24]
ffffffff80003418:	39003c1f 	strb	wzr, [x0, #15]
ffffffff8000341c:	f9400fe0 	ldr	x0, [sp, #24]
ffffffff80003420:	52800021 	mov	w1, #0x1                   	// #1
ffffffff80003424:	39003801 	strb	w1, [x0, #14]
ffffffff80003428:	1400008c 	b	ffffffff80003658 <escape_parse+0x394>
ffffffff8000342c:	f9001fff 	str	xzr, [sp, #56]
ffffffff80003430:	1400000a 	b	ffffffff80003458 <escape_parse+0x194>
ffffffff80003434:	f9400fe1 	ldr	x1, [sp, #24]
ffffffff80003438:	f9401fe0 	ldr	x0, [sp, #56]
ffffffff8000343c:	91007000 	add	x0, x0, #0x1c
ffffffff80003440:	d37ef400 	lsl	x0, x0, #2
ffffffff80003444:	8b000020 	add	x0, x1, x0
ffffffff80003448:	b900081f 	str	wzr, [x0, #8]
ffffffff8000344c:	f9401fe0 	ldr	x0, [sp, #56]
ffffffff80003450:	91000400 	add	x0, x0, #0x1
ffffffff80003454:	f9001fe0 	str	x0, [sp, #56]
ffffffff80003458:	f9401fe0 	ldr	x0, [sp, #56]
ffffffff8000345c:	f1003c1f 	cmp	x0, #0xf
ffffffff80003460:	54fffea9 	b.ls	ffffffff80003434 <escape_parse+0x170>  // b.plast
ffffffff80003464:	f9400fe0 	ldr	x0, [sp, #24]
ffffffff80003468:	f900201f 	str	xzr, [x0, #64]
ffffffff8000346c:	f9400fe0 	ldr	x0, [sp, #24]
ffffffff80003470:	3900401f 	strb	wzr, [x0, #16]
ffffffff80003474:	f9400fe0 	ldr	x0, [sp, #24]
ffffffff80003478:	52800021 	mov	w1, #0x1                   	// #1
ffffffff8000347c:	39002c01 	strb	w1, [x0, #11]
ffffffff80003480:	14000076 	b	ffffffff80003658 <escape_parse+0x394>
ffffffff80003484:	f9400fe0 	ldr	x0, [sp, #24]
ffffffff80003488:	97ffff6d 	bl	ffffffff8000323c <save_state>
ffffffff8000348c:	14000071 	b	ffffffff80003650 <escape_parse+0x38c>
ffffffff80003490:	f9400fe0 	ldr	x0, [sp, #24]
ffffffff80003494:	97ffff48 	bl	ffffffff800031b4 <restore_state>
ffffffff80003498:	1400006e 	b	ffffffff80003650 <escape_parse+0x38c>
ffffffff8000349c:	f9400fe0 	ldr	x0, [sp, #24]
ffffffff800034a0:	97fff6c0 	bl	ffffffff80000fa0 <flanterm_context_reinit>
ffffffff800034a4:	f9400fe0 	ldr	x0, [sp, #24]
ffffffff800034a8:	f9407c02 	ldr	x2, [x0, #248]
ffffffff800034ac:	52800021 	mov	w1, #0x1                   	// #1
ffffffff800034b0:	f9400fe0 	ldr	x0, [sp, #24]
ffffffff800034b4:	d63f0040 	blr	x2
ffffffff800034b8:	14000066 	b	ffffffff80003650 <escape_parse+0x38c>
ffffffff800034bc:	f9400fe0 	ldr	x0, [sp, #24]
ffffffff800034c0:	f9403800 	ldr	x0, [x0, #112]
ffffffff800034c4:	d1000401 	sub	x1, x0, #0x1
ffffffff800034c8:	f94017e0 	ldr	x0, [sp, #40]
ffffffff800034cc:	eb00003f 	cmp	x1, x0
ffffffff800034d0:	540001c1 	b.ne	ffffffff80003508 <escape_parse+0x244>  // b.any
ffffffff800034d4:	f9400fe0 	ldr	x0, [sp, #24]
ffffffff800034d8:	f940b401 	ldr	x1, [x0, #360]
ffffffff800034dc:	f9400fe0 	ldr	x0, [sp, #24]
ffffffff800034e0:	d63f0020 	blr	x1
ffffffff800034e4:	f9400fe0 	ldr	x0, [sp, #24]
ffffffff800034e8:	f9408003 	ldr	x3, [x0, #256]
ffffffff800034ec:	f9401be0 	ldr	x0, [sp, #48]
ffffffff800034f0:	f94017e1 	ldr	x1, [sp, #40]
ffffffff800034f4:	aa0103e2 	mov	x2, x1
ffffffff800034f8:	aa0003e1 	mov	x1, x0
ffffffff800034fc:	f9400fe0 	ldr	x0, [sp, #24]
ffffffff80003500:	d63f0060 	blr	x3
ffffffff80003504:	14000053 	b	ffffffff80003650 <escape_parse+0x38c>
ffffffff80003508:	f9400fe0 	ldr	x0, [sp, #24]
ffffffff8000350c:	f9408003 	ldr	x3, [x0, #256]
ffffffff80003510:	f9401be1 	ldr	x1, [sp, #48]
ffffffff80003514:	f94017e0 	ldr	x0, [sp, #40]
ffffffff80003518:	91000400 	add	x0, x0, #0x1
ffffffff8000351c:	aa0003e2 	mov	x2, x0
ffffffff80003520:	f9400fe0 	ldr	x0, [sp, #24]
ffffffff80003524:	d63f0060 	blr	x3
ffffffff80003528:	1400004a 	b	ffffffff80003650 <escape_parse+0x38c>
ffffffff8000352c:	f9400fe0 	ldr	x0, [sp, #24]
ffffffff80003530:	f9403800 	ldr	x0, [x0, #112]
ffffffff80003534:	d1000401 	sub	x1, x0, #0x1
ffffffff80003538:	f94017e0 	ldr	x0, [sp, #40]
ffffffff8000353c:	eb00003f 	cmp	x1, x0
ffffffff80003540:	540001a1 	b.ne	ffffffff80003574 <escape_parse+0x2b0>  // b.any
ffffffff80003544:	f9400fe0 	ldr	x0, [sp, #24]
ffffffff80003548:	f940b401 	ldr	x1, [x0, #360]
ffffffff8000354c:	f9400fe0 	ldr	x0, [sp, #24]
ffffffff80003550:	d63f0020 	blr	x1
ffffffff80003554:	f9400fe0 	ldr	x0, [sp, #24]
ffffffff80003558:	f9408003 	ldr	x3, [x0, #256]
ffffffff8000355c:	f94017e0 	ldr	x0, [sp, #40]
ffffffff80003560:	aa0003e2 	mov	x2, x0
ffffffff80003564:	d2800001 	mov	x1, #0x0                   	// #0
ffffffff80003568:	f9400fe0 	ldr	x0, [sp, #24]
ffffffff8000356c:	d63f0060 	blr	x3
ffffffff80003570:	14000038 	b	ffffffff80003650 <escape_parse+0x38c>
ffffffff80003574:	f9400fe0 	ldr	x0, [sp, #24]
ffffffff80003578:	f9408003 	ldr	x3, [x0, #256]
ffffffff8000357c:	f94017e0 	ldr	x0, [sp, #40]
ffffffff80003580:	91000400 	add	x0, x0, #0x1
ffffffff80003584:	aa0003e2 	mov	x2, x0
ffffffff80003588:	d2800001 	mov	x1, #0x0                   	// #0
ffffffff8000358c:	f9400fe0 	ldr	x0, [sp, #24]
ffffffff80003590:	d63f0060 	blr	x3
ffffffff80003594:	1400002f 	b	ffffffff80003650 <escape_parse+0x38c>
ffffffff80003598:	f9400fe0 	ldr	x0, [sp, #24]
ffffffff8000359c:	f9403401 	ldr	x1, [x0, #104]
ffffffff800035a0:	f94017e0 	ldr	x0, [sp, #40]
ffffffff800035a4:	eb00003f 	cmp	x1, x0
ffffffff800035a8:	540001a1 	b.ne	ffffffff800035dc <escape_parse+0x318>  // b.any
ffffffff800035ac:	f9400fe0 	ldr	x0, [sp, #24]
ffffffff800035b0:	f940b801 	ldr	x1, [x0, #368]
ffffffff800035b4:	f9400fe0 	ldr	x0, [sp, #24]
ffffffff800035b8:	d63f0020 	blr	x1
ffffffff800035bc:	f9400fe0 	ldr	x0, [sp, #24]
ffffffff800035c0:	f9408003 	ldr	x3, [x0, #256]
ffffffff800035c4:	f94017e0 	ldr	x0, [sp, #40]
ffffffff800035c8:	aa0003e2 	mov	x2, x0
ffffffff800035cc:	d2800001 	mov	x1, #0x0                   	// #0
ffffffff800035d0:	f9400fe0 	ldr	x0, [sp, #24]
ffffffff800035d4:	d63f0060 	blr	x3
ffffffff800035d8:	1400001e 	b	ffffffff80003650 <escape_parse+0x38c>
ffffffff800035dc:	f9400fe0 	ldr	x0, [sp, #24]
ffffffff800035e0:	f9408003 	ldr	x3, [x0, #256]
ffffffff800035e4:	f94017e0 	ldr	x0, [sp, #40]
ffffffff800035e8:	d1000400 	sub	x0, x0, #0x1
ffffffff800035ec:	aa0003e2 	mov	x2, x0
ffffffff800035f0:	d2800001 	mov	x1, #0x0                   	// #0
ffffffff800035f4:	f9400fe0 	ldr	x0, [sp, #24]
ffffffff800035f8:	d63f0060 	blr	x3
ffffffff800035fc:	14000015 	b	ffffffff80003650 <escape_parse+0x38c>
ffffffff80003600:	f9400fe0 	ldr	x0, [sp, #24]
ffffffff80003604:	f940d400 	ldr	x0, [x0, #424]
ffffffff80003608:	f100001f 	cmp	x0, #0x0
ffffffff8000360c:	54000200 	b.eq	ffffffff8000364c <escape_parse+0x388>  // b.none
ffffffff80003610:	f9400fe0 	ldr	x0, [sp, #24]
ffffffff80003614:	f940d405 	ldr	x5, [x0, #424]
ffffffff80003618:	d2800004 	mov	x4, #0x0                   	// #0
ffffffff8000361c:	d2800003 	mov	x3, #0x0                   	// #0
ffffffff80003620:	d2800002 	mov	x2, #0x0                   	// #0
ffffffff80003624:	d28003c1 	mov	x1, #0x1e                  	// #30
ffffffff80003628:	f9400fe0 	ldr	x0, [sp, #24]
ffffffff8000362c:	d63f00a0 	blr	x5
ffffffff80003630:	14000007 	b	ffffffff8000364c <escape_parse+0x388>
ffffffff80003634:	39405fe0 	ldrb	w0, [sp, #23]
ffffffff80003638:	51009c00 	sub	w0, w0, #0x27
ffffffff8000363c:	12001c01 	and	w1, w0, #0xff
ffffffff80003640:	f9400fe0 	ldr	x0, [sp, #24]
ffffffff80003644:	3900a001 	strb	w1, [x0, #40]
ffffffff80003648:	14000002 	b	ffffffff80003650 <escape_parse+0x38c>
ffffffff8000364c:	d503201f 	nop
ffffffff80003650:	f9400fe0 	ldr	x0, [sp, #24]
ffffffff80003654:	3900341f 	strb	wzr, [x0, #13]
ffffffff80003658:	a8c47bfd 	ldp	x29, x30, [sp], #64
ffffffff8000365c:	d65f03c0 	ret

ffffffff80003660 <dec_special_print>:
ffffffff80003660:	a9be7bfd 	stp	x29, x30, [sp, #-32]!
ffffffff80003664:	910003fd 	mov	x29, sp
ffffffff80003668:	f9000fe0 	str	x0, [sp, #24]
ffffffff8000366c:	39005fe1 	strb	w1, [sp, #23]
ffffffff80003670:	39405fe0 	ldrb	w0, [sp, #23]
ffffffff80003674:	5100ac00 	sub	w0, w0, #0x2b
ffffffff80003678:	71014c1f 	cmp	w0, #0x53
ffffffff8000367c:	54001968 	b.hi	ffffffff800039a8 <dec_special_print+0x348>  // b.pmore
ffffffff80003680:	b00000a1 	adrp	x1, ffffffff80018000 <_exc_lower_32_serror+0x10080>
ffffffff80003684:	9118e021 	add	x1, x1, #0x638
ffffffff80003688:	b8605820 	ldr	w0, [x1, w0, uxtw #2]
ffffffff8000368c:	10000061 	adr	x1, ffffffff80003698 <dec_special_print+0x38>
ffffffff80003690:	8b20c820 	add	x0, x1, w0, sxtw #2
ffffffff80003694:	d61f0000 	br	x0
ffffffff80003698:	f9400fe0 	ldr	x0, [sp, #24]
ffffffff8000369c:	f9407802 	ldr	x2, [x0, #240]
ffffffff800036a0:	52800081 	mov	w1, #0x4                   	// #4
ffffffff800036a4:	f9400fe0 	ldr	x0, [sp, #24]
ffffffff800036a8:	d63f0040 	blr	x2
ffffffff800036ac:	52800020 	mov	w0, #0x1                   	// #1
ffffffff800036b0:	140000bf 	b	ffffffff800039ac <dec_special_print+0x34c>
ffffffff800036b4:	f9400fe0 	ldr	x0, [sp, #24]
ffffffff800036b8:	f9407802 	ldr	x2, [x0, #240]
ffffffff800036bc:	12800481 	mov	w1, #0xffffffdb            	// #-37
ffffffff800036c0:	f9400fe0 	ldr	x0, [sp, #24]
ffffffff800036c4:	d63f0040 	blr	x2
ffffffff800036c8:	52800020 	mov	w0, #0x1                   	// #1
ffffffff800036cc:	140000b8 	b	ffffffff800039ac <dec_special_print+0x34c>
ffffffff800036d0:	f9400fe0 	ldr	x0, [sp, #24]
ffffffff800036d4:	f9407802 	ldr	x2, [x0, #240]
ffffffff800036d8:	52800301 	mov	w1, #0x18                  	// #24
ffffffff800036dc:	f9400fe0 	ldr	x0, [sp, #24]
ffffffff800036e0:	d63f0040 	blr	x2
ffffffff800036e4:	52800020 	mov	w0, #0x1                   	// #1
ffffffff800036e8:	140000b1 	b	ffffffff800039ac <dec_special_print+0x34c>
ffffffff800036ec:	f9400fe0 	ldr	x0, [sp, #24]
ffffffff800036f0:	f9407802 	ldr	x2, [x0, #240]
ffffffff800036f4:	52800361 	mov	w1, #0x1b                  	// #27
ffffffff800036f8:	f9400fe0 	ldr	x0, [sp, #24]
ffffffff800036fc:	d63f0040 	blr	x2
ffffffff80003700:	52800020 	mov	w0, #0x1                   	// #1
ffffffff80003704:	140000aa 	b	ffffffff800039ac <dec_special_print+0x34c>
ffffffff80003708:	f9400fe0 	ldr	x0, [sp, #24]
ffffffff8000370c:	f9407802 	ldr	x2, [x0, #240]
ffffffff80003710:	52800321 	mov	w1, #0x19                  	// #25
ffffffff80003714:	f9400fe0 	ldr	x0, [sp, #24]
ffffffff80003718:	d63f0040 	blr	x2
ffffffff8000371c:	52800020 	mov	w0, #0x1                   	// #1
ffffffff80003720:	140000a3 	b	ffffffff800039ac <dec_special_print+0x34c>
ffffffff80003724:	f9400fe0 	ldr	x0, [sp, #24]
ffffffff80003728:	f9407802 	ldr	x2, [x0, #240]
ffffffff8000372c:	128009c1 	mov	w1, #0xffffffb1            	// #-79
ffffffff80003730:	f9400fe0 	ldr	x0, [sp, #24]
ffffffff80003734:	d63f0040 	blr	x2
ffffffff80003738:	52800020 	mov	w0, #0x1                   	// #1
ffffffff8000373c:	1400009c 	b	ffffffff800039ac <dec_special_print+0x34c>
ffffffff80003740:	f9400fe0 	ldr	x0, [sp, #24]
ffffffff80003744:	f9407802 	ldr	x2, [x0, #240]
ffffffff80003748:	128000e1 	mov	w1, #0xfffffff8            	// #-8
ffffffff8000374c:	f9400fe0 	ldr	x0, [sp, #24]
ffffffff80003750:	d63f0040 	blr	x2
ffffffff80003754:	52800020 	mov	w0, #0x1                   	// #1
ffffffff80003758:	14000095 	b	ffffffff800039ac <dec_special_print+0x34c>
ffffffff8000375c:	f9400fe0 	ldr	x0, [sp, #24]
ffffffff80003760:	f9407802 	ldr	x2, [x0, #240]
ffffffff80003764:	128001c1 	mov	w1, #0xfffffff1            	// #-15
ffffffff80003768:	f9400fe0 	ldr	x0, [sp, #24]
ffffffff8000376c:	d63f0040 	blr	x2
ffffffff80003770:	52800020 	mov	w0, #0x1                   	// #1
ffffffff80003774:	1400008e 	b	ffffffff800039ac <dec_special_print+0x34c>
ffffffff80003778:	f9400fe0 	ldr	x0, [sp, #24]
ffffffff8000377c:	f9407802 	ldr	x2, [x0, #240]
ffffffff80003780:	128009e1 	mov	w1, #0xffffffb0            	// #-80
ffffffff80003784:	f9400fe0 	ldr	x0, [sp, #24]
ffffffff80003788:	d63f0040 	blr	x2
ffffffff8000378c:	52800020 	mov	w0, #0x1                   	// #1
ffffffff80003790:	14000087 	b	ffffffff800039ac <dec_special_print+0x34c>
ffffffff80003794:	f9400fe0 	ldr	x0, [sp, #24]
ffffffff80003798:	f9407802 	ldr	x2, [x0, #240]
ffffffff8000379c:	128004c1 	mov	w1, #0xffffffd9            	// #-39
ffffffff800037a0:	f9400fe0 	ldr	x0, [sp, #24]
ffffffff800037a4:	d63f0040 	blr	x2
ffffffff800037a8:	52800020 	mov	w0, #0x1                   	// #1
ffffffff800037ac:	14000080 	b	ffffffff800039ac <dec_special_print+0x34c>
ffffffff800037b0:	f9400fe0 	ldr	x0, [sp, #24]
ffffffff800037b4:	f9407802 	ldr	x2, [x0, #240]
ffffffff800037b8:	12800801 	mov	w1, #0xffffffbf            	// #-65
ffffffff800037bc:	f9400fe0 	ldr	x0, [sp, #24]
ffffffff800037c0:	d63f0040 	blr	x2
ffffffff800037c4:	52800020 	mov	w0, #0x1                   	// #1
ffffffff800037c8:	14000079 	b	ffffffff800039ac <dec_special_print+0x34c>
ffffffff800037cc:	f9400fe0 	ldr	x0, [sp, #24]
ffffffff800037d0:	f9407802 	ldr	x2, [x0, #240]
ffffffff800037d4:	128004a1 	mov	w1, #0xffffffda            	// #-38
ffffffff800037d8:	f9400fe0 	ldr	x0, [sp, #24]
ffffffff800037dc:	d63f0040 	blr	x2
ffffffff800037e0:	52800020 	mov	w0, #0x1                   	// #1
ffffffff800037e4:	14000072 	b	ffffffff800039ac <dec_special_print+0x34c>
ffffffff800037e8:	f9400fe0 	ldr	x0, [sp, #24]
ffffffff800037ec:	f9407802 	ldr	x2, [x0, #240]
ffffffff800037f0:	128007e1 	mov	w1, #0xffffffc0            	// #-64
ffffffff800037f4:	f9400fe0 	ldr	x0, [sp, #24]
ffffffff800037f8:	d63f0040 	blr	x2
ffffffff800037fc:	52800020 	mov	w0, #0x1                   	// #1
ffffffff80003800:	1400006b 	b	ffffffff800039ac <dec_special_print+0x34c>
ffffffff80003804:	f9400fe0 	ldr	x0, [sp, #24]
ffffffff80003808:	f9407802 	ldr	x2, [x0, #240]
ffffffff8000380c:	12800741 	mov	w1, #0xffffffc5            	// #-59
ffffffff80003810:	f9400fe0 	ldr	x0, [sp, #24]
ffffffff80003814:	d63f0040 	blr	x2
ffffffff80003818:	52800020 	mov	w0, #0x1                   	// #1
ffffffff8000381c:	14000064 	b	ffffffff800039ac <dec_special_print+0x34c>
ffffffff80003820:	f9400fe0 	ldr	x0, [sp, #24]
ffffffff80003824:	f9407802 	ldr	x2, [x0, #240]
ffffffff80003828:	12800761 	mov	w1, #0xffffffc4            	// #-60
ffffffff8000382c:	f9400fe0 	ldr	x0, [sp, #24]
ffffffff80003830:	d63f0040 	blr	x2
ffffffff80003834:	52800020 	mov	w0, #0x1                   	// #1
ffffffff80003838:	1400005d 	b	ffffffff800039ac <dec_special_print+0x34c>
ffffffff8000383c:	f9400fe0 	ldr	x0, [sp, #24]
ffffffff80003840:	f9407802 	ldr	x2, [x0, #240]
ffffffff80003844:	52800be1 	mov	w1, #0x5f                  	// #95
ffffffff80003848:	f9400fe0 	ldr	x0, [sp, #24]
ffffffff8000384c:	d63f0040 	blr	x2
ffffffff80003850:	52800020 	mov	w0, #0x1                   	// #1
ffffffff80003854:	14000056 	b	ffffffff800039ac <dec_special_print+0x34c>
ffffffff80003858:	f9400fe0 	ldr	x0, [sp, #24]
ffffffff8000385c:	f9407802 	ldr	x2, [x0, #240]
ffffffff80003860:	12800781 	mov	w1, #0xffffffc3            	// #-61
ffffffff80003864:	f9400fe0 	ldr	x0, [sp, #24]
ffffffff80003868:	d63f0040 	blr	x2
ffffffff8000386c:	52800020 	mov	w0, #0x1                   	// #1
ffffffff80003870:	1400004f 	b	ffffffff800039ac <dec_special_print+0x34c>
ffffffff80003874:	f9400fe0 	ldr	x0, [sp, #24]
ffffffff80003878:	f9407802 	ldr	x2, [x0, #240]
ffffffff8000387c:	12800961 	mov	w1, #0xffffffb4            	// #-76
ffffffff80003880:	f9400fe0 	ldr	x0, [sp, #24]
ffffffff80003884:	d63f0040 	blr	x2
ffffffff80003888:	52800020 	mov	w0, #0x1                   	// #1
ffffffff8000388c:	14000048 	b	ffffffff800039ac <dec_special_print+0x34c>
ffffffff80003890:	f9400fe0 	ldr	x0, [sp, #24]
ffffffff80003894:	f9407802 	ldr	x2, [x0, #240]
ffffffff80003898:	128007c1 	mov	w1, #0xffffffc1            	// #-63
ffffffff8000389c:	f9400fe0 	ldr	x0, [sp, #24]
ffffffff800038a0:	d63f0040 	blr	x2
ffffffff800038a4:	52800020 	mov	w0, #0x1                   	// #1
ffffffff800038a8:	14000041 	b	ffffffff800039ac <dec_special_print+0x34c>
ffffffff800038ac:	f9400fe0 	ldr	x0, [sp, #24]
ffffffff800038b0:	f9407802 	ldr	x2, [x0, #240]
ffffffff800038b4:	128007a1 	mov	w1, #0xffffffc2            	// #-62
ffffffff800038b8:	f9400fe0 	ldr	x0, [sp, #24]
ffffffff800038bc:	d63f0040 	blr	x2
ffffffff800038c0:	52800020 	mov	w0, #0x1                   	// #1
ffffffff800038c4:	1400003a 	b	ffffffff800039ac <dec_special_print+0x34c>
ffffffff800038c8:	f9400fe0 	ldr	x0, [sp, #24]
ffffffff800038cc:	f9407802 	ldr	x2, [x0, #240]
ffffffff800038d0:	12800981 	mov	w1, #0xffffffb3            	// #-77
ffffffff800038d4:	f9400fe0 	ldr	x0, [sp, #24]
ffffffff800038d8:	d63f0040 	blr	x2
ffffffff800038dc:	52800020 	mov	w0, #0x1                   	// #1
ffffffff800038e0:	14000033 	b	ffffffff800039ac <dec_special_print+0x34c>
ffffffff800038e4:	f9400fe0 	ldr	x0, [sp, #24]
ffffffff800038e8:	f9407802 	ldr	x2, [x0, #240]
ffffffff800038ec:	12800181 	mov	w1, #0xfffffff3            	// #-13
ffffffff800038f0:	f9400fe0 	ldr	x0, [sp, #24]
ffffffff800038f4:	d63f0040 	blr	x2
ffffffff800038f8:	52800020 	mov	w0, #0x1                   	// #1
ffffffff800038fc:	1400002c 	b	ffffffff800039ac <dec_special_print+0x34c>
ffffffff80003900:	f9400fe0 	ldr	x0, [sp, #24]
ffffffff80003904:	f9407802 	ldr	x2, [x0, #240]
ffffffff80003908:	128001a1 	mov	w1, #0xfffffff2            	// #-14
ffffffff8000390c:	f9400fe0 	ldr	x0, [sp, #24]
ffffffff80003910:	d63f0040 	blr	x2
ffffffff80003914:	52800020 	mov	w0, #0x1                   	// #1
ffffffff80003918:	14000025 	b	ffffffff800039ac <dec_special_print+0x34c>
ffffffff8000391c:	f9400fe0 	ldr	x0, [sp, #24]
ffffffff80003920:	f9407802 	ldr	x2, [x0, #240]
ffffffff80003924:	128000a1 	mov	w1, #0xfffffffa            	// #-6
ffffffff80003928:	f9400fe0 	ldr	x0, [sp, #24]
ffffffff8000392c:	d63f0040 	blr	x2
ffffffff80003930:	52800020 	mov	w0, #0x1                   	// #1
ffffffff80003934:	1400001e 	b	ffffffff800039ac <dec_special_print+0x34c>
ffffffff80003938:	f9400fe0 	ldr	x0, [sp, #24]
ffffffff8000393c:	f9407802 	ldr	x2, [x0, #240]
ffffffff80003940:	12800001 	mov	w1, #0xffffffff            	// #-1
ffffffff80003944:	f9400fe0 	ldr	x0, [sp, #24]
ffffffff80003948:	d63f0040 	blr	x2
ffffffff8000394c:	52800020 	mov	w0, #0x1                   	// #1
ffffffff80003950:	14000017 	b	ffffffff800039ac <dec_special_print+0x34c>
ffffffff80003954:	f9400fe0 	ldr	x0, [sp, #24]
ffffffff80003958:	f9407802 	ldr	x2, [x0, #240]
ffffffff8000395c:	52800341 	mov	w1, #0x1a                  	// #26
ffffffff80003960:	f9400fe0 	ldr	x0, [sp, #24]
ffffffff80003964:	d63f0040 	blr	x2
ffffffff80003968:	52800020 	mov	w0, #0x1                   	// #1
ffffffff8000396c:	14000010 	b	ffffffff800039ac <dec_special_print+0x34c>
ffffffff80003970:	f9400fe0 	ldr	x0, [sp, #24]
ffffffff80003974:	f9407802 	ldr	x2, [x0, #240]
ffffffff80003978:	12800381 	mov	w1, #0xffffffe3            	// #-29
ffffffff8000397c:	f9400fe0 	ldr	x0, [sp, #24]
ffffffff80003980:	d63f0040 	blr	x2
ffffffff80003984:	52800020 	mov	w0, #0x1                   	// #1
ffffffff80003988:	14000009 	b	ffffffff800039ac <dec_special_print+0x34c>
ffffffff8000398c:	f9400fe0 	ldr	x0, [sp, #24]
ffffffff80003990:	f9407802 	ldr	x2, [x0, #240]
ffffffff80003994:	12800c61 	mov	w1, #0xffffff9c            	// #-100
ffffffff80003998:	f9400fe0 	ldr	x0, [sp, #24]
ffffffff8000399c:	d63f0040 	blr	x2
ffffffff800039a0:	52800020 	mov	w0, #0x1                   	// #1
ffffffff800039a4:	14000002 	b	ffffffff800039ac <dec_special_print+0x34c>
ffffffff800039a8:	52800000 	mov	w0, #0x0                   	// #0
ffffffff800039ac:	a8c27bfd 	ldp	x29, x30, [sp], #32
ffffffff800039b0:	d65f03c0 	ret

ffffffff800039b4 <bisearch>:
ffffffff800039b4:	d10083ff 	sub	sp, sp, #0x20
ffffffff800039b8:	b9000fe0 	str	w0, [sp, #12]
ffffffff800039bc:	f90003e1 	str	x1, [sp]
ffffffff800039c0:	b9000be2 	str	w2, [sp, #8]
ffffffff800039c4:	b9001fff 	str	wzr, [sp, #28]
ffffffff800039c8:	f94003e0 	ldr	x0, [sp]
ffffffff800039cc:	b9400000 	ldr	w0, [x0]
ffffffff800039d0:	b9400fe1 	ldr	w1, [sp, #12]
ffffffff800039d4:	6b00003f 	cmp	w1, w0
ffffffff800039d8:	54000123 	b.cc	ffffffff800039fc <bisearch+0x48>  // b.lo, b.ul, b.last
ffffffff800039dc:	b9800be0 	ldrsw	x0, [sp, #8]
ffffffff800039e0:	d37df000 	lsl	x0, x0, #3
ffffffff800039e4:	f94003e1 	ldr	x1, [sp]
ffffffff800039e8:	8b000020 	add	x0, x1, x0
ffffffff800039ec:	b9400400 	ldr	w0, [x0, #4]
ffffffff800039f0:	b9400fe1 	ldr	w1, [sp, #12]
ffffffff800039f4:	6b00003f 	cmp	w1, w0
ffffffff800039f8:	54000489 	b.ls	ffffffff80003a88 <bisearch+0xd4>  // b.plast
ffffffff800039fc:	52800000 	mov	w0, #0x0                   	// #0
ffffffff80003a00:	14000027 	b	ffffffff80003a9c <bisearch+0xe8>
ffffffff80003a04:	b9401fe1 	ldr	w1, [sp, #28]
ffffffff80003a08:	b9400be0 	ldr	w0, [sp, #8]
ffffffff80003a0c:	0b000020 	add	w0, w1, w0
ffffffff80003a10:	531f7c01 	lsr	w1, w0, #31
ffffffff80003a14:	0b000020 	add	w0, w1, w0
ffffffff80003a18:	13017c00 	asr	w0, w0, #1
ffffffff80003a1c:	b9001be0 	str	w0, [sp, #24]
ffffffff80003a20:	b9801be0 	ldrsw	x0, [sp, #24]
ffffffff80003a24:	d37df000 	lsl	x0, x0, #3
ffffffff80003a28:	f94003e1 	ldr	x1, [sp]
ffffffff80003a2c:	8b000020 	add	x0, x1, x0
ffffffff80003a30:	b9400400 	ldr	w0, [x0, #4]
ffffffff80003a34:	b9400fe1 	ldr	w1, [sp, #12]
ffffffff80003a38:	6b00003f 	cmp	w1, w0
ffffffff80003a3c:	540000a9 	b.ls	ffffffff80003a50 <bisearch+0x9c>  // b.plast
ffffffff80003a40:	b9401be0 	ldr	w0, [sp, #24]
ffffffff80003a44:	11000400 	add	w0, w0, #0x1
ffffffff80003a48:	b9001fe0 	str	w0, [sp, #28]
ffffffff80003a4c:	1400000f 	b	ffffffff80003a88 <bisearch+0xd4>
ffffffff80003a50:	b9801be0 	ldrsw	x0, [sp, #24]
ffffffff80003a54:	d37df000 	lsl	x0, x0, #3
ffffffff80003a58:	f94003e1 	ldr	x1, [sp]
ffffffff80003a5c:	8b000020 	add	x0, x1, x0
ffffffff80003a60:	b9400000 	ldr	w0, [x0]
ffffffff80003a64:	b9400fe1 	ldr	w1, [sp, #12]
ffffffff80003a68:	6b00003f 	cmp	w1, w0
ffffffff80003a6c:	540000a2 	b.cs	ffffffff80003a80 <bisearch+0xcc>  // b.hs, b.nlast
ffffffff80003a70:	b9401be0 	ldr	w0, [sp, #24]
ffffffff80003a74:	51000400 	sub	w0, w0, #0x1
ffffffff80003a78:	b9000be0 	str	w0, [sp, #8]
ffffffff80003a7c:	14000003 	b	ffffffff80003a88 <bisearch+0xd4>
ffffffff80003a80:	52800020 	mov	w0, #0x1                   	// #1
ffffffff80003a84:	14000006 	b	ffffffff80003a9c <bisearch+0xe8>
ffffffff80003a88:	b9400be1 	ldr	w1, [sp, #8]
ffffffff80003a8c:	b9401fe0 	ldr	w0, [sp, #28]
ffffffff80003a90:	6b00003f 	cmp	w1, w0
ffffffff80003a94:	54fffb8a 	b.ge	ffffffff80003a04 <bisearch+0x50>  // b.tcont
ffffffff80003a98:	52800000 	mov	w0, #0x0                   	// #0
ffffffff80003a9c:	910083ff 	add	sp, sp, #0x20
ffffffff80003aa0:	d65f03c0 	ret

ffffffff80003aa4 <mk_wcwidth>:
ffffffff80003aa4:	a9be7bfd 	stp	x29, x30, [sp, #-32]!
ffffffff80003aa8:	910003fd 	mov	x29, sp
ffffffff80003aac:	b9001fe0 	str	w0, [sp, #28]
ffffffff80003ab0:	b9401fe0 	ldr	w0, [sp, #28]
ffffffff80003ab4:	7100001f 	cmp	w0, #0x0
ffffffff80003ab8:	54000061 	b.ne	ffffffff80003ac4 <mk_wcwidth+0x20>  // b.any
ffffffff80003abc:	52800000 	mov	w0, #0x0                   	// #0
ffffffff80003ac0:	14000076 	b	ffffffff80003c98 <mk_wcwidth+0x1f4>
ffffffff80003ac4:	b9401fe0 	ldr	w0, [sp, #28]
ffffffff80003ac8:	71007c1f 	cmp	w0, #0x1f
ffffffff80003acc:	540000e9 	b.ls	ffffffff80003ae8 <mk_wcwidth+0x44>  // b.plast
ffffffff80003ad0:	b9401fe0 	ldr	w0, [sp, #28]
ffffffff80003ad4:	7101f81f 	cmp	w0, #0x7e
ffffffff80003ad8:	540000c9 	b.ls	ffffffff80003af0 <mk_wcwidth+0x4c>  // b.plast
ffffffff80003adc:	b9401fe0 	ldr	w0, [sp, #28]
ffffffff80003ae0:	71027c1f 	cmp	w0, #0x9f
ffffffff80003ae4:	54000068 	b.hi	ffffffff80003af0 <mk_wcwidth+0x4c>  // b.pmore
ffffffff80003ae8:	52800020 	mov	w0, #0x1                   	// #1
ffffffff80003aec:	1400006b 	b	ffffffff80003c98 <mk_wcwidth+0x1f4>
ffffffff80003af0:	528011a2 	mov	w2, #0x8d                  	// #141
ffffffff80003af4:	d00000a0 	adrp	x0, ffffffff80019000 <col256+0xe60>
ffffffff80003af8:	91074001 	add	x1, x0, #0x1d0
ffffffff80003afc:	b9401fe0 	ldr	w0, [sp, #28]
ffffffff80003b00:	97ffffad 	bl	ffffffff800039b4 <bisearch>
ffffffff80003b04:	7100001f 	cmp	w0, #0x0
ffffffff80003b08:	54000060 	b.eq	ffffffff80003b14 <mk_wcwidth+0x70>  // b.none
ffffffff80003b0c:	52800000 	mov	w0, #0x0                   	// #0
ffffffff80003b10:	14000062 	b	ffffffff80003c98 <mk_wcwidth+0x1f4>
ffffffff80003b14:	b9401fe1 	ldr	w1, [sp, #28]
ffffffff80003b18:	52821fe0 	mov	w0, #0x10ff                	// #4351
ffffffff80003b1c:	6b00003f 	cmp	w1, w0
ffffffff80003b20:	54000b89 	b.ls	ffffffff80003c90 <mk_wcwidth+0x1ec>  // b.plast
ffffffff80003b24:	b9401fe1 	ldr	w1, [sp, #28]
ffffffff80003b28:	52822be0 	mov	w0, #0x115f                	// #4447
ffffffff80003b2c:	6b00003f 	cmp	w1, w0
ffffffff80003b30:	54000ac9 	b.ls	ffffffff80003c88 <mk_wcwidth+0x1e4>  // b.plast
ffffffff80003b34:	b9401fe1 	ldr	w1, [sp, #28]
ffffffff80003b38:	52846520 	mov	w0, #0x2329                	// #9001
ffffffff80003b3c:	6b00003f 	cmp	w1, w0
ffffffff80003b40:	54000a40 	b.eq	ffffffff80003c88 <mk_wcwidth+0x1e4>  // b.none
ffffffff80003b44:	b9401fe1 	ldr	w1, [sp, #28]
ffffffff80003b48:	52846540 	mov	w0, #0x232a                	// #9002
ffffffff80003b4c:	6b00003f 	cmp	w1, w0
ffffffff80003b50:	540009c0 	b.eq	ffffffff80003c88 <mk_wcwidth+0x1e4>  // b.none
ffffffff80003b54:	b9401fe1 	ldr	w1, [sp, #28]
ffffffff80003b58:	5285cfe0 	mov	w0, #0x2e7f                	// #11903
ffffffff80003b5c:	6b00003f 	cmp	w1, w0
ffffffff80003b60:	54000129 	b.ls	ffffffff80003b84 <mk_wcwidth+0xe0>  // b.plast
ffffffff80003b64:	b9401fe1 	ldr	w1, [sp, #28]
ffffffff80003b68:	529499e0 	mov	w0, #0xa4cf                	// #42191
ffffffff80003b6c:	6b00003f 	cmp	w1, w0
ffffffff80003b70:	540000a8 	b.hi	ffffffff80003b84 <mk_wcwidth+0xe0>  // b.pmore
ffffffff80003b74:	b9401fe1 	ldr	w1, [sp, #28]
ffffffff80003b78:	528607e0 	mov	w0, #0x303f                	// #12351
ffffffff80003b7c:	6b00003f 	cmp	w1, w0
ffffffff80003b80:	54000841 	b.ne	ffffffff80003c88 <mk_wcwidth+0x1e4>  // b.any
ffffffff80003b84:	b9401fe1 	ldr	w1, [sp, #28]
ffffffff80003b88:	52957fe0 	mov	w0, #0xabff                	// #44031
ffffffff80003b8c:	6b00003f 	cmp	w1, w0
ffffffff80003b90:	540000a9 	b.ls	ffffffff80003ba4 <mk_wcwidth+0x100>  // b.plast
ffffffff80003b94:	b9401fe1 	ldr	w1, [sp, #28]
ffffffff80003b98:	529af460 	mov	w0, #0xd7a3                	// #55203
ffffffff80003b9c:	6b00003f 	cmp	w1, w0
ffffffff80003ba0:	54000749 	b.ls	ffffffff80003c88 <mk_wcwidth+0x1e4>  // b.plast
ffffffff80003ba4:	b9401fe1 	ldr	w1, [sp, #28]
ffffffff80003ba8:	529f1fe0 	mov	w0, #0xf8ff                	// #63743
ffffffff80003bac:	6b00003f 	cmp	w1, w0
ffffffff80003bb0:	540000a9 	b.ls	ffffffff80003bc4 <mk_wcwidth+0x120>  // b.plast
ffffffff80003bb4:	b9401fe1 	ldr	w1, [sp, #28]
ffffffff80003bb8:	529f5fe0 	mov	w0, #0xfaff                	// #64255
ffffffff80003bbc:	6b00003f 	cmp	w1, w0
ffffffff80003bc0:	54000649 	b.ls	ffffffff80003c88 <mk_wcwidth+0x1e4>  // b.plast
ffffffff80003bc4:	b9401fe1 	ldr	w1, [sp, #28]
ffffffff80003bc8:	529fc1e0 	mov	w0, #0xfe0f                	// #65039
ffffffff80003bcc:	6b00003f 	cmp	w1, w0
ffffffff80003bd0:	540000a9 	b.ls	ffffffff80003be4 <mk_wcwidth+0x140>  // b.plast
ffffffff80003bd4:	b9401fe1 	ldr	w1, [sp, #28]
ffffffff80003bd8:	529fc320 	mov	w0, #0xfe19                	// #65049
ffffffff80003bdc:	6b00003f 	cmp	w1, w0
ffffffff80003be0:	54000549 	b.ls	ffffffff80003c88 <mk_wcwidth+0x1e4>  // b.plast
ffffffff80003be4:	b9401fe1 	ldr	w1, [sp, #28]
ffffffff80003be8:	529fc5e0 	mov	w0, #0xfe2f                	// #65071
ffffffff80003bec:	6b00003f 	cmp	w1, w0
ffffffff80003bf0:	540000a9 	b.ls	ffffffff80003c04 <mk_wcwidth+0x160>  // b.plast
ffffffff80003bf4:	b9401fe1 	ldr	w1, [sp, #28]
ffffffff80003bf8:	529fcde0 	mov	w0, #0xfe6f                	// #65135
ffffffff80003bfc:	6b00003f 	cmp	w1, w0
ffffffff80003c00:	54000449 	b.ls	ffffffff80003c88 <mk_wcwidth+0x1e4>  // b.plast
ffffffff80003c04:	b9401fe1 	ldr	w1, [sp, #28]
ffffffff80003c08:	529fdfe0 	mov	w0, #0xfeff                	// #65279
ffffffff80003c0c:	6b00003f 	cmp	w1, w0
ffffffff80003c10:	540000a9 	b.ls	ffffffff80003c24 <mk_wcwidth+0x180>  // b.plast
ffffffff80003c14:	b9401fe1 	ldr	w1, [sp, #28]
ffffffff80003c18:	529fec00 	mov	w0, #0xff60                	// #65376
ffffffff80003c1c:	6b00003f 	cmp	w1, w0
ffffffff80003c20:	54000349 	b.ls	ffffffff80003c88 <mk_wcwidth+0x1e4>  // b.plast
ffffffff80003c24:	b9401fe1 	ldr	w1, [sp, #28]
ffffffff80003c28:	529ffbe0 	mov	w0, #0xffdf                	// #65503
ffffffff80003c2c:	6b00003f 	cmp	w1, w0
ffffffff80003c30:	540000a9 	b.ls	ffffffff80003c44 <mk_wcwidth+0x1a0>  // b.plast
ffffffff80003c34:	b9401fe1 	ldr	w1, [sp, #28]
ffffffff80003c38:	529ffcc0 	mov	w0, #0xffe6                	// #65510
ffffffff80003c3c:	6b00003f 	cmp	w1, w0
ffffffff80003c40:	54000249 	b.ls	ffffffff80003c88 <mk_wcwidth+0x1e4>  // b.plast
ffffffff80003c44:	b9401fe1 	ldr	w1, [sp, #28]
ffffffff80003c48:	12bfffc0 	mov	w0, #0x1ffff               	// #131071
ffffffff80003c4c:	6b00003f 	cmp	w1, w0
ffffffff80003c50:	540000c9 	b.ls	ffffffff80003c68 <mk_wcwidth+0x1c4>  // b.plast
ffffffff80003c54:	b9401fe1 	ldr	w1, [sp, #28]
ffffffff80003c58:	529fffa0 	mov	w0, #0xfffd                	// #65533
ffffffff80003c5c:	72a00040 	movk	w0, #0x2, lsl #16
ffffffff80003c60:	6b00003f 	cmp	w1, w0
ffffffff80003c64:	54000129 	b.ls	ffffffff80003c88 <mk_wcwidth+0x1e4>  // b.plast
ffffffff80003c68:	b9401fe1 	ldr	w1, [sp, #28]
ffffffff80003c6c:	12bfffa0 	mov	w0, #0x2ffff               	// #196607
ffffffff80003c70:	6b00003f 	cmp	w1, w0
ffffffff80003c74:	540000e9 	b.ls	ffffffff80003c90 <mk_wcwidth+0x1ec>  // b.plast
ffffffff80003c78:	b9401fe1 	ldr	w1, [sp, #28]
ffffffff80003c7c:	321f43e0 	mov	w0, #0x3fffe               	// #262142
ffffffff80003c80:	6b00003f 	cmp	w1, w0
ffffffff80003c84:	54000062 	b.cs	ffffffff80003c90 <mk_wcwidth+0x1ec>  // b.hs, b.nlast
ffffffff80003c88:	52800020 	mov	w0, #0x1                   	// #1
ffffffff80003c8c:	14000002 	b	ffffffff80003c94 <mk_wcwidth+0x1f0>
ffffffff80003c90:	52800000 	mov	w0, #0x0                   	// #0
ffffffff80003c94:	11000400 	add	w0, w0, #0x1
ffffffff80003c98:	a8c27bfd 	ldp	x29, x30, [sp], #32
ffffffff80003c9c:	d65f03c0 	ret

ffffffff80003ca0 <unicode_to_cp437>:
ffffffff80003ca0:	d10043ff 	sub	sp, sp, #0x10
ffffffff80003ca4:	f90007e0 	str	x0, [sp, #8]
ffffffff80003ca8:	f94007e1 	ldr	x1, [sp, #8]
ffffffff80003cac:	d284cd60 	mov	x0, #0x266b                	// #9835
ffffffff80003cb0:	eb00003f 	cmp	x1, x0
ffffffff80003cb4:	540046c8 	b.hi	ffffffff8000458c <unicode_to_cp437+0x8ec>  // b.pmore
ffffffff80003cb8:	f94007e1 	ldr	x1, [sp, #8]
ffffffff80003cbc:	d284a000 	mov	x0, #0x2500                	// #9472
ffffffff80003cc0:	eb00003f 	cmp	x1, x0
ffffffff80003cc4:	54001902 	b.cs	ffffffff80003fe4 <unicode_to_cp437+0x344>  // b.hs, b.nlast
ffffffff80003cc8:	f94007e1 	ldr	x1, [sp, #8]
ffffffff80003ccc:	d2846420 	mov	x0, #0x2321                	// #8993
ffffffff80003cd0:	eb00003f 	cmp	x1, x0
ffffffff80003cd4:	54004340 	b.eq	ffffffff8000453c <unicode_to_cp437+0x89c>  // b.none
ffffffff80003cd8:	f94007e1 	ldr	x1, [sp, #8]
ffffffff80003cdc:	d2846420 	mov	x0, #0x2321                	// #8993
ffffffff80003ce0:	eb00003f 	cmp	x1, x0
ffffffff80003ce4:	54004548 	b.hi	ffffffff8000458c <unicode_to_cp437+0x8ec>  // b.pmore
ffffffff80003ce8:	f94007e1 	ldr	x1, [sp, #8]
ffffffff80003cec:	d2846400 	mov	x0, #0x2320                	// #8992
ffffffff80003cf0:	eb00003f 	cmp	x1, x0
ffffffff80003cf4:	54004200 	b.eq	ffffffff80004534 <unicode_to_cp437+0x894>  // b.none
ffffffff80003cf8:	f94007e1 	ldr	x1, [sp, #8]
ffffffff80003cfc:	d2846400 	mov	x0, #0x2320                	// #8992
ffffffff80003d00:	eb00003f 	cmp	x1, x0
ffffffff80003d04:	54004448 	b.hi	ffffffff8000458c <unicode_to_cp437+0x8ec>  // b.pmore
ffffffff80003d08:	f94007e1 	ldr	x1, [sp, #8]
ffffffff80003d0c:	d2846200 	mov	x0, #0x2310                	// #8976
ffffffff80003d10:	eb00003f 	cmp	x1, x0
ffffffff80003d14:	54002e40 	b.eq	ffffffff800042dc <unicode_to_cp437+0x63c>  // b.none
ffffffff80003d18:	f94007e1 	ldr	x1, [sp, #8]
ffffffff80003d1c:	d2846200 	mov	x0, #0x2310                	// #8976
ffffffff80003d20:	eb00003f 	cmp	x1, x0
ffffffff80003d24:	54004348 	b.hi	ffffffff8000458c <unicode_to_cp437+0x8ec>  // b.pmore
ffffffff80003d28:	f94007e1 	ldr	x1, [sp, #8]
ffffffff80003d2c:	d2846040 	mov	x0, #0x2302                	// #8962
ffffffff80003d30:	eb00003f 	cmp	x1, x0
ffffffff80003d34:	540022c0 	b.eq	ffffffff8000418c <unicode_to_cp437+0x4ec>  // b.none
ffffffff80003d38:	f94007e1 	ldr	x1, [sp, #8]
ffffffff80003d3c:	d2846040 	mov	x0, #0x2302                	// #8962
ffffffff80003d40:	eb00003f 	cmp	x1, x0
ffffffff80003d44:	54004248 	b.hi	ffffffff8000458c <unicode_to_cp437+0x8ec>  // b.pmore
ffffffff80003d48:	f94007e1 	ldr	x1, [sp, #8]
ffffffff80003d4c:	d2844ca0 	mov	x0, #0x2265                	// #8805
ffffffff80003d50:	eb00003f 	cmp	x1, x0
ffffffff80003d54:	54003e80 	b.eq	ffffffff80004524 <unicode_to_cp437+0x884>  // b.none
ffffffff80003d58:	f94007e1 	ldr	x1, [sp, #8]
ffffffff80003d5c:	d2844ca0 	mov	x0, #0x2265                	// #8805
ffffffff80003d60:	eb00003f 	cmp	x1, x0
ffffffff80003d64:	54004148 	b.hi	ffffffff8000458c <unicode_to_cp437+0x8ec>  // b.pmore
ffffffff80003d68:	f94007e1 	ldr	x1, [sp, #8]
ffffffff80003d6c:	d2844c80 	mov	x0, #0x2264                	// #8804
ffffffff80003d70:	eb00003f 	cmp	x1, x0
ffffffff80003d74:	54003dc0 	b.eq	ffffffff8000452c <unicode_to_cp437+0x88c>  // b.none
ffffffff80003d78:	f94007e1 	ldr	x1, [sp, #8]
ffffffff80003d7c:	d2844c80 	mov	x0, #0x2264                	// #8804
ffffffff80003d80:	eb00003f 	cmp	x1, x0
ffffffff80003d84:	54004048 	b.hi	ffffffff8000458c <unicode_to_cp437+0x8ec>  // b.pmore
ffffffff80003d88:	f94007e1 	ldr	x1, [sp, #8]
ffffffff80003d8c:	d2844c20 	mov	x0, #0x2261                	// #8801
ffffffff80003d90:	eb00003f 	cmp	x1, x0
ffffffff80003d94:	54003c00 	b.eq	ffffffff80004514 <unicode_to_cp437+0x874>  // b.none
ffffffff80003d98:	f94007e1 	ldr	x1, [sp, #8]
ffffffff80003d9c:	d2844c20 	mov	x0, #0x2261                	// #8801
ffffffff80003da0:	eb00003f 	cmp	x1, x0
ffffffff80003da4:	54003f48 	b.hi	ffffffff8000458c <unicode_to_cp437+0x8ec>  // b.pmore
ffffffff80003da8:	f94007e1 	ldr	x1, [sp, #8]
ffffffff80003dac:	d2844900 	mov	x0, #0x2248                	// #8776
ffffffff80003db0:	eb00003f 	cmp	x1, x0
ffffffff80003db4:	54003cc0 	b.eq	ffffffff8000454c <unicode_to_cp437+0x8ac>  // b.none
ffffffff80003db8:	f94007e1 	ldr	x1, [sp, #8]
ffffffff80003dbc:	d2844900 	mov	x0, #0x2248                	// #8776
ffffffff80003dc0:	eb00003f 	cmp	x1, x0
ffffffff80003dc4:	54003e48 	b.hi	ffffffff8000458c <unicode_to_cp437+0x8ec>  // b.pmore
ffffffff80003dc8:	f94007e1 	ldr	x1, [sp, #8]
ffffffff80003dcc:	d2844520 	mov	x0, #0x2229                	// #8745
ffffffff80003dd0:	eb00003f 	cmp	x1, x0
ffffffff80003dd4:	540039c0 	b.eq	ffffffff8000450c <unicode_to_cp437+0x86c>  // b.none
ffffffff80003dd8:	f94007e1 	ldr	x1, [sp, #8]
ffffffff80003ddc:	d2844520 	mov	x0, #0x2229                	// #8745
ffffffff80003de0:	eb00003f 	cmp	x1, x0
ffffffff80003de4:	54003d48 	b.hi	ffffffff8000458c <unicode_to_cp437+0x8ec>  // b.pmore
ffffffff80003de8:	f94007e1 	ldr	x1, [sp, #8]
ffffffff80003dec:	d28443e0 	mov	x0, #0x221f                	// #8735
ffffffff80003df0:	eb00003f 	cmp	x1, x0
ffffffff80003df4:	54001bc0 	b.eq	ffffffff8000416c <unicode_to_cp437+0x4cc>  // b.none
ffffffff80003df8:	f94007e1 	ldr	x1, [sp, #8]
ffffffff80003dfc:	d28443e0 	mov	x0, #0x221f                	// #8735
ffffffff80003e00:	eb00003f 	cmp	x1, x0
ffffffff80003e04:	54003c48 	b.hi	ffffffff8000458c <unicode_to_cp437+0x8ec>  // b.pmore
ffffffff80003e08:	f94007e1 	ldr	x1, [sp, #8]
ffffffff80003e0c:	d28443c0 	mov	x0, #0x221e                	// #8734
ffffffff80003e10:	eb00003f 	cmp	x1, x0
ffffffff80003e14:	54003700 	b.eq	ffffffff800044f4 <unicode_to_cp437+0x854>  // b.none
ffffffff80003e18:	f94007e1 	ldr	x1, [sp, #8]
ffffffff80003e1c:	d28443c0 	mov	x0, #0x221e                	// #8734
ffffffff80003e20:	eb00003f 	cmp	x1, x0
ffffffff80003e24:	54003b48 	b.hi	ffffffff8000458c <unicode_to_cp437+0x8ec>  // b.pmore
ffffffff80003e28:	f94007e1 	ldr	x1, [sp, #8]
ffffffff80003e2c:	d2844340 	mov	x0, #0x221a                	// #8730
ffffffff80003e30:	eb00003f 	cmp	x1, x0
ffffffff80003e34:	540039c0 	b.eq	ffffffff8000456c <unicode_to_cp437+0x8cc>  // b.none
ffffffff80003e38:	f94007e1 	ldr	x1, [sp, #8]
ffffffff80003e3c:	d2844340 	mov	x0, #0x221a                	// #8730
ffffffff80003e40:	eb00003f 	cmp	x1, x0
ffffffff80003e44:	54003a48 	b.hi	ffffffff8000458c <unicode_to_cp437+0x8ec>  // b.pmore
ffffffff80003e48:	f94007e1 	ldr	x1, [sp, #8]
ffffffff80003e4c:	d2844320 	mov	x0, #0x2219                	// #8729
ffffffff80003e50:	eb00003f 	cmp	x1, x0
ffffffff80003e54:	54003840 	b.eq	ffffffff8000455c <unicode_to_cp437+0x8bc>  // b.none
ffffffff80003e58:	f94007e1 	ldr	x1, [sp, #8]
ffffffff80003e5c:	d2844320 	mov	x0, #0x2219                	// #8729
ffffffff80003e60:	eb00003f 	cmp	x1, x0
ffffffff80003e64:	54003948 	b.hi	ffffffff8000458c <unicode_to_cp437+0x8ec>  // b.pmore
ffffffff80003e68:	f94007e1 	ldr	x1, [sp, #8]
ffffffff80003e6c:	d2843500 	mov	x0, #0x21a8                	// #8616
ffffffff80003e70:	eb00003f 	cmp	x1, x0
ffffffff80003e74:	54001680 	b.eq	ffffffff80004144 <unicode_to_cp437+0x4a4>  // b.none
ffffffff80003e78:	f94007e1 	ldr	x1, [sp, #8]
ffffffff80003e7c:	d2843500 	mov	x0, #0x21a8                	// #8616
ffffffff80003e80:	eb00003f 	cmp	x1, x0
ffffffff80003e84:	54003848 	b.hi	ffffffff8000458c <unicode_to_cp437+0x8ec>  // b.pmore
ffffffff80003e88:	f94007e1 	ldr	x1, [sp, #8]
ffffffff80003e8c:	d28432a0 	mov	x0, #0x2195                	// #8597
ffffffff80003e90:	eb00003f 	cmp	x1, x0
ffffffff80003e94:	54001440 	b.eq	ffffffff8000411c <unicode_to_cp437+0x47c>  // b.none
ffffffff80003e98:	f94007e1 	ldr	x1, [sp, #8]
ffffffff80003e9c:	d28432a0 	mov	x0, #0x2195                	// #8597
ffffffff80003ea0:	eb00003f 	cmp	x1, x0
ffffffff80003ea4:	54003748 	b.hi	ffffffff8000458c <unicode_to_cp437+0x8ec>  // b.pmore
ffffffff80003ea8:	f94007e1 	ldr	x1, [sp, #8]
ffffffff80003eac:	d2843280 	mov	x0, #0x2194                	// #8596
ffffffff80003eb0:	eb00003f 	cmp	x1, x0
ffffffff80003eb4:	54001600 	b.eq	ffffffff80004174 <unicode_to_cp437+0x4d4>  // b.none
ffffffff80003eb8:	f94007e1 	ldr	x1, [sp, #8]
ffffffff80003ebc:	d2843280 	mov	x0, #0x2194                	// #8596
ffffffff80003ec0:	eb00003f 	cmp	x1, x0
ffffffff80003ec4:	54003648 	b.hi	ffffffff8000458c <unicode_to_cp437+0x8ec>  // b.pmore
ffffffff80003ec8:	f94007e1 	ldr	x1, [sp, #8]
ffffffff80003ecc:	d2843260 	mov	x0, #0x2193                	// #8595
ffffffff80003ed0:	eb00003f 	cmp	x1, x0
ffffffff80003ed4:	54001400 	b.eq	ffffffff80004154 <unicode_to_cp437+0x4b4>  // b.none
ffffffff80003ed8:	f94007e1 	ldr	x1, [sp, #8]
ffffffff80003edc:	d2843260 	mov	x0, #0x2193                	// #8595
ffffffff80003ee0:	eb00003f 	cmp	x1, x0
ffffffff80003ee4:	54003548 	b.hi	ffffffff8000458c <unicode_to_cp437+0x8ec>  // b.pmore
ffffffff80003ee8:	f94007e1 	ldr	x1, [sp, #8]
ffffffff80003eec:	d2843240 	mov	x0, #0x2192                	// #8594
ffffffff80003ef0:	eb00003f 	cmp	x1, x0
ffffffff80003ef4:	54001340 	b.eq	ffffffff8000415c <unicode_to_cp437+0x4bc>  // b.none
ffffffff80003ef8:	f94007e1 	ldr	x1, [sp, #8]
ffffffff80003efc:	d2843240 	mov	x0, #0x2192                	// #8594
ffffffff80003f00:	eb00003f 	cmp	x1, x0
ffffffff80003f04:	54003448 	b.hi	ffffffff8000458c <unicode_to_cp437+0x8ec>  // b.pmore
ffffffff80003f08:	f94007e1 	ldr	x1, [sp, #8]
ffffffff80003f0c:	d2843220 	mov	x0, #0x2191                	// #8593
ffffffff80003f10:	eb00003f 	cmp	x1, x0
ffffffff80003f14:	540011c0 	b.eq	ffffffff8000414c <unicode_to_cp437+0x4ac>  // b.none
ffffffff80003f18:	f94007e1 	ldr	x1, [sp, #8]
ffffffff80003f1c:	d2843220 	mov	x0, #0x2191                	// #8593
ffffffff80003f20:	eb00003f 	cmp	x1, x0
ffffffff80003f24:	54003348 	b.hi	ffffffff8000458c <unicode_to_cp437+0x8ec>  // b.pmore
ffffffff80003f28:	f94007e1 	ldr	x1, [sp, #8]
ffffffff80003f2c:	d2843200 	mov	x0, #0x2190                	// #8592
ffffffff80003f30:	eb00003f 	cmp	x1, x0
ffffffff80003f34:	54001180 	b.eq	ffffffff80004164 <unicode_to_cp437+0x4c4>  // b.none
ffffffff80003f38:	f94007e1 	ldr	x1, [sp, #8]
ffffffff80003f3c:	d2843200 	mov	x0, #0x2190                	// #8592
ffffffff80003f40:	eb00003f 	cmp	x1, x0
ffffffff80003f44:	54003248 	b.hi	ffffffff8000458c <unicode_to_cp437+0x8ec>  // b.pmore
ffffffff80003f48:	f94007e1 	ldr	x1, [sp, #8]
ffffffff80003f4c:	d28414e0 	mov	x0, #0x20a7                	// #8359
ffffffff80003f50:	eb00003f 	cmp	x1, x0
ffffffff80003f54:	54001980 	b.eq	ffffffff80004284 <unicode_to_cp437+0x5e4>  // b.none
ffffffff80003f58:	f94007e1 	ldr	x1, [sp, #8]
ffffffff80003f5c:	d28414e0 	mov	x0, #0x20a7                	// #8359
ffffffff80003f60:	eb00003f 	cmp	x1, x0
ffffffff80003f64:	54003148 	b.hi	ffffffff8000458c <unicode_to_cp437+0x8ec>  // b.pmore
ffffffff80003f68:	f94007e1 	ldr	x1, [sp, #8]
ffffffff80003f6c:	d2840fe0 	mov	x0, #0x207f                	// #8319
ffffffff80003f70:	eb00003f 	cmp	x1, x0
ffffffff80003f74:	54003000 	b.eq	ffffffff80004574 <unicode_to_cp437+0x8d4>  // b.none
ffffffff80003f78:	f94007e1 	ldr	x1, [sp, #8]
ffffffff80003f7c:	d2840fe0 	mov	x0, #0x207f                	// #8319
ffffffff80003f80:	eb00003f 	cmp	x1, x0
ffffffff80003f84:	54003048 	b.hi	ffffffff8000458c <unicode_to_cp437+0x8ec>  // b.pmore
ffffffff80003f88:	f94007e1 	ldr	x1, [sp, #8]
ffffffff80003f8c:	d2840780 	mov	x0, #0x203c                	// #8252
ffffffff80003f90:	eb00003f 	cmp	x1, x0
ffffffff80003f94:	54000c80 	b.eq	ffffffff80004124 <unicode_to_cp437+0x484>  // b.none
ffffffff80003f98:	f94007e1 	ldr	x1, [sp, #8]
ffffffff80003f9c:	d2840780 	mov	x0, #0x203c                	// #8252
ffffffff80003fa0:	eb00003f 	cmp	x1, x0
ffffffff80003fa4:	54002f48 	b.hi	ffffffff8000458c <unicode_to_cp437+0x8ec>  // b.pmore
ffffffff80003fa8:	f94007e1 	ldr	x1, [sp, #8]
ffffffff80003fac:	d2840440 	mov	x0, #0x2022                	// #8226
ffffffff80003fb0:	eb00003f 	cmp	x1, x0
ffffffff80003fb4:	54000880 	b.eq	ffffffff800040c4 <unicode_to_cp437+0x424>  // b.none
ffffffff80003fb8:	f94007e1 	ldr	x1, [sp, #8]
ffffffff80003fbc:	d2840440 	mov	x0, #0x2022                	// #8226
ffffffff80003fc0:	eb00003f 	cmp	x1, x0
ffffffff80003fc4:	54002e48 	b.hi	ffffffff8000458c <unicode_to_cp437+0x8ec>  // b.pmore
ffffffff80003fc8:	f94007e0 	ldr	x0, [sp, #8]
ffffffff80003fcc:	f106481f 	cmp	x0, #0x192
ffffffff80003fd0:	54000548 	b.hi	ffffffff80004078 <unicode_to_cp437+0x3d8>  // b.pmore
ffffffff80003fd4:	f94007e0 	ldr	x0, [sp, #8]
ffffffff80003fd8:	f102841f 	cmp	x0, #0xa1
ffffffff80003fdc:	54000362 	b.cs	ffffffff80004048 <unicode_to_cp437+0x3a8>  // b.hs, b.nlast
ffffffff80003fe0:	1400016b 	b	ffffffff8000458c <unicode_to_cp437+0x8ec>
ffffffff80003fe4:	f94007e1 	ldr	x1, [sp, #8]
ffffffff80003fe8:	92849fe0 	mov	x0, #0xffffffffffffdb00    	// #-9472
ffffffff80003fec:	8b000020 	add	x0, x1, x0
ffffffff80003ff0:	f105ac1f 	cmp	x0, #0x16b
ffffffff80003ff4:	54002cc8 	b.hi	ffffffff8000458c <unicode_to_cp437+0x8ec>  // b.pmore
ffffffff80003ff8:	7105ac1f 	cmp	w0, #0x16b
ffffffff80003ffc:	54002c88 	b.hi	ffffffff8000458c <unicode_to_cp437+0x8ec>  // b.pmore
ffffffff80004000:	900000a1 	adrp	x1, ffffffff80018000 <_exc_lower_32_serror+0x10080>
ffffffff80004004:	911e2021 	add	x1, x1, #0x788
ffffffff80004008:	b8605820 	ldr	w0, [x1, w0, uxtw #2]
ffffffff8000400c:	10000061 	adr	x1, ffffffff80004018 <unicode_to_cp437+0x378>
ffffffff80004010:	8b20c820 	add	x0, x1, w0, sxtw #2
ffffffff80004014:	d61f0000 	br	x0
ffffffff80004018:	f94007e0 	ldr	x0, [sp, #8]
ffffffff8000401c:	d10e4c00 	sub	x0, x0, #0x393
ffffffff80004020:	f100cc1f 	cmp	x0, #0x33
ffffffff80004024:	54002b48 	b.hi	ffffffff8000458c <unicode_to_cp437+0x8ec>  // b.pmore
ffffffff80004028:	7100cc1f 	cmp	w0, #0x33
ffffffff8000402c:	54002b08 	b.hi	ffffffff8000458c <unicode_to_cp437+0x8ec>  // b.pmore
ffffffff80004030:	900000a1 	adrp	x1, ffffffff80018000 <_exc_lower_32_serror+0x10080>
ffffffff80004034:	9134e021 	add	x1, x1, #0xd38
ffffffff80004038:	b8605820 	ldr	w0, [x1, w0, uxtw #2]
ffffffff8000403c:	10000061 	adr	x1, ffffffff80004048 <unicode_to_cp437+0x3a8>
ffffffff80004040:	8b20c820 	add	x0, x1, w0, sxtw #2
ffffffff80004044:	d61f0000 	br	x0
ffffffff80004048:	f94007e0 	ldr	x0, [sp, #8]
ffffffff8000404c:	d1028400 	sub	x0, x0, #0xa1
ffffffff80004050:	f103c41f 	cmp	x0, #0xf1
ffffffff80004054:	540029c8 	b.hi	ffffffff8000458c <unicode_to_cp437+0x8ec>  // b.pmore
ffffffff80004058:	7103c41f 	cmp	w0, #0xf1
ffffffff8000405c:	54002988 	b.hi	ffffffff8000458c <unicode_to_cp437+0x8ec>  // b.pmore
ffffffff80004060:	900000a1 	adrp	x1, ffffffff80018000 <_exc_lower_32_serror+0x10080>
ffffffff80004064:	91382021 	add	x1, x1, #0xe08
ffffffff80004068:	b8605820 	ldr	w0, [x1, w0, uxtw #2]
ffffffff8000406c:	10000061 	adr	x1, ffffffff80004078 <unicode_to_cp437+0x3d8>
ffffffff80004070:	8b20c820 	add	x0, x1, w0, sxtw #2
ffffffff80004074:	d61f0000 	br	x0
ffffffff80004078:	f94007e0 	ldr	x0, [sp, #8]
ffffffff8000407c:	f10f181f 	cmp	x0, #0x3c6
ffffffff80004080:	54002868 	b.hi	ffffffff8000458c <unicode_to_cp437+0x8ec>  // b.pmore
ffffffff80004084:	f94007e0 	ldr	x0, [sp, #8]
ffffffff80004088:	f10e4c1f 	cmp	x0, #0x393
ffffffff8000408c:	54fffc62 	b.cs	ffffffff80004018 <unicode_to_cp437+0x378>  // b.hs, b.nlast
ffffffff80004090:	1400013f 	b	ffffffff8000458c <unicode_to_cp437+0x8ec>
ffffffff80004094:	52800020 	mov	w0, #0x1                   	// #1
ffffffff80004098:	1400013e 	b	ffffffff80004590 <unicode_to_cp437+0x8f0>
ffffffff8000409c:	52800040 	mov	w0, #0x2                   	// #2
ffffffff800040a0:	1400013c 	b	ffffffff80004590 <unicode_to_cp437+0x8f0>
ffffffff800040a4:	52800060 	mov	w0, #0x3                   	// #3
ffffffff800040a8:	1400013a 	b	ffffffff80004590 <unicode_to_cp437+0x8f0>
ffffffff800040ac:	52800080 	mov	w0, #0x4                   	// #4
ffffffff800040b0:	14000138 	b	ffffffff80004590 <unicode_to_cp437+0x8f0>
ffffffff800040b4:	528000a0 	mov	w0, #0x5                   	// #5
ffffffff800040b8:	14000136 	b	ffffffff80004590 <unicode_to_cp437+0x8f0>
ffffffff800040bc:	528000c0 	mov	w0, #0x6                   	// #6
ffffffff800040c0:	14000134 	b	ffffffff80004590 <unicode_to_cp437+0x8f0>
ffffffff800040c4:	528000e0 	mov	w0, #0x7                   	// #7
ffffffff800040c8:	14000132 	b	ffffffff80004590 <unicode_to_cp437+0x8f0>
ffffffff800040cc:	52800100 	mov	w0, #0x8                   	// #8
ffffffff800040d0:	14000130 	b	ffffffff80004590 <unicode_to_cp437+0x8f0>
ffffffff800040d4:	52800120 	mov	w0, #0x9                   	// #9
ffffffff800040d8:	1400012e 	b	ffffffff80004590 <unicode_to_cp437+0x8f0>
ffffffff800040dc:	52800140 	mov	w0, #0xa                   	// #10
ffffffff800040e0:	1400012c 	b	ffffffff80004590 <unicode_to_cp437+0x8f0>
ffffffff800040e4:	52800160 	mov	w0, #0xb                   	// #11
ffffffff800040e8:	1400012a 	b	ffffffff80004590 <unicode_to_cp437+0x8f0>
ffffffff800040ec:	52800180 	mov	w0, #0xc                   	// #12
ffffffff800040f0:	14000128 	b	ffffffff80004590 <unicode_to_cp437+0x8f0>
ffffffff800040f4:	528001a0 	mov	w0, #0xd                   	// #13
ffffffff800040f8:	14000126 	b	ffffffff80004590 <unicode_to_cp437+0x8f0>
ffffffff800040fc:	528001c0 	mov	w0, #0xe                   	// #14
ffffffff80004100:	14000124 	b	ffffffff80004590 <unicode_to_cp437+0x8f0>
ffffffff80004104:	528001e0 	mov	w0, #0xf                   	// #15
ffffffff80004108:	14000122 	b	ffffffff80004590 <unicode_to_cp437+0x8f0>
ffffffff8000410c:	52800200 	mov	w0, #0x10                  	// #16
ffffffff80004110:	14000120 	b	ffffffff80004590 <unicode_to_cp437+0x8f0>
ffffffff80004114:	52800220 	mov	w0, #0x11                  	// #17
ffffffff80004118:	1400011e 	b	ffffffff80004590 <unicode_to_cp437+0x8f0>
ffffffff8000411c:	52800240 	mov	w0, #0x12                  	// #18
ffffffff80004120:	1400011c 	b	ffffffff80004590 <unicode_to_cp437+0x8f0>
ffffffff80004124:	52800260 	mov	w0, #0x13                  	// #19
ffffffff80004128:	1400011a 	b	ffffffff80004590 <unicode_to_cp437+0x8f0>
ffffffff8000412c:	52800280 	mov	w0, #0x14                  	// #20
ffffffff80004130:	14000118 	b	ffffffff80004590 <unicode_to_cp437+0x8f0>
ffffffff80004134:	528002a0 	mov	w0, #0x15                  	// #21
ffffffff80004138:	14000116 	b	ffffffff80004590 <unicode_to_cp437+0x8f0>
ffffffff8000413c:	528002c0 	mov	w0, #0x16                  	// #22
ffffffff80004140:	14000114 	b	ffffffff80004590 <unicode_to_cp437+0x8f0>
ffffffff80004144:	528002e0 	mov	w0, #0x17                  	// #23
ffffffff80004148:	14000112 	b	ffffffff80004590 <unicode_to_cp437+0x8f0>
ffffffff8000414c:	52800300 	mov	w0, #0x18                  	// #24
ffffffff80004150:	14000110 	b	ffffffff80004590 <unicode_to_cp437+0x8f0>
ffffffff80004154:	52800320 	mov	w0, #0x19                  	// #25
ffffffff80004158:	1400010e 	b	ffffffff80004590 <unicode_to_cp437+0x8f0>
ffffffff8000415c:	52800340 	mov	w0, #0x1a                  	// #26
ffffffff80004160:	1400010c 	b	ffffffff80004590 <unicode_to_cp437+0x8f0>
ffffffff80004164:	52800360 	mov	w0, #0x1b                  	// #27
ffffffff80004168:	1400010a 	b	ffffffff80004590 <unicode_to_cp437+0x8f0>
ffffffff8000416c:	52800380 	mov	w0, #0x1c                  	// #28
ffffffff80004170:	14000108 	b	ffffffff80004590 <unicode_to_cp437+0x8f0>
ffffffff80004174:	528003a0 	mov	w0, #0x1d                  	// #29
ffffffff80004178:	14000106 	b	ffffffff80004590 <unicode_to_cp437+0x8f0>
ffffffff8000417c:	528003c0 	mov	w0, #0x1e                  	// #30
ffffffff80004180:	14000104 	b	ffffffff80004590 <unicode_to_cp437+0x8f0>
ffffffff80004184:	528003e0 	mov	w0, #0x1f                  	// #31
ffffffff80004188:	14000102 	b	ffffffff80004590 <unicode_to_cp437+0x8f0>
ffffffff8000418c:	52800fe0 	mov	w0, #0x7f                  	// #127
ffffffff80004190:	14000100 	b	ffffffff80004590 <unicode_to_cp437+0x8f0>
ffffffff80004194:	52801000 	mov	w0, #0x80                  	// #128
ffffffff80004198:	140000fe 	b	ffffffff80004590 <unicode_to_cp437+0x8f0>
ffffffff8000419c:	52801020 	mov	w0, #0x81                  	// #129
ffffffff800041a0:	140000fc 	b	ffffffff80004590 <unicode_to_cp437+0x8f0>
ffffffff800041a4:	52801040 	mov	w0, #0x82                  	// #130
ffffffff800041a8:	140000fa 	b	ffffffff80004590 <unicode_to_cp437+0x8f0>
ffffffff800041ac:	52801060 	mov	w0, #0x83                  	// #131
ffffffff800041b0:	140000f8 	b	ffffffff80004590 <unicode_to_cp437+0x8f0>
ffffffff800041b4:	52801080 	mov	w0, #0x84                  	// #132
ffffffff800041b8:	140000f6 	b	ffffffff80004590 <unicode_to_cp437+0x8f0>
ffffffff800041bc:	528010a0 	mov	w0, #0x85                  	// #133
ffffffff800041c0:	140000f4 	b	ffffffff80004590 <unicode_to_cp437+0x8f0>
ffffffff800041c4:	528010c0 	mov	w0, #0x86                  	// #134
ffffffff800041c8:	140000f2 	b	ffffffff80004590 <unicode_to_cp437+0x8f0>
ffffffff800041cc:	528010e0 	mov	w0, #0x87                  	// #135
ffffffff800041d0:	140000f0 	b	ffffffff80004590 <unicode_to_cp437+0x8f0>
ffffffff800041d4:	52801100 	mov	w0, #0x88                  	// #136
ffffffff800041d8:	140000ee 	b	ffffffff80004590 <unicode_to_cp437+0x8f0>
ffffffff800041dc:	52801120 	mov	w0, #0x89                  	// #137
ffffffff800041e0:	140000ec 	b	ffffffff80004590 <unicode_to_cp437+0x8f0>
ffffffff800041e4:	52801140 	mov	w0, #0x8a                  	// #138
ffffffff800041e8:	140000ea 	b	ffffffff80004590 <unicode_to_cp437+0x8f0>
ffffffff800041ec:	52801160 	mov	w0, #0x8b                  	// #139
ffffffff800041f0:	140000e8 	b	ffffffff80004590 <unicode_to_cp437+0x8f0>
ffffffff800041f4:	52801180 	mov	w0, #0x8c                  	// #140
ffffffff800041f8:	140000e6 	b	ffffffff80004590 <unicode_to_cp437+0x8f0>
ffffffff800041fc:	528011a0 	mov	w0, #0x8d                  	// #141
ffffffff80004200:	140000e4 	b	ffffffff80004590 <unicode_to_cp437+0x8f0>
ffffffff80004204:	528011c0 	mov	w0, #0x8e                  	// #142
ffffffff80004208:	140000e2 	b	ffffffff80004590 <unicode_to_cp437+0x8f0>
ffffffff8000420c:	528011e0 	mov	w0, #0x8f                  	// #143
ffffffff80004210:	140000e0 	b	ffffffff80004590 <unicode_to_cp437+0x8f0>
ffffffff80004214:	52801200 	mov	w0, #0x90                  	// #144
ffffffff80004218:	140000de 	b	ffffffff80004590 <unicode_to_cp437+0x8f0>
ffffffff8000421c:	52801220 	mov	w0, #0x91                  	// #145
ffffffff80004220:	140000dc 	b	ffffffff80004590 <unicode_to_cp437+0x8f0>
ffffffff80004224:	52801240 	mov	w0, #0x92                  	// #146
ffffffff80004228:	140000da 	b	ffffffff80004590 <unicode_to_cp437+0x8f0>
ffffffff8000422c:	52801260 	mov	w0, #0x93                  	// #147
ffffffff80004230:	140000d8 	b	ffffffff80004590 <unicode_to_cp437+0x8f0>
ffffffff80004234:	52801280 	mov	w0, #0x94                  	// #148
ffffffff80004238:	140000d6 	b	ffffffff80004590 <unicode_to_cp437+0x8f0>
ffffffff8000423c:	528012a0 	mov	w0, #0x95                  	// #149
ffffffff80004240:	140000d4 	b	ffffffff80004590 <unicode_to_cp437+0x8f0>
ffffffff80004244:	528012c0 	mov	w0, #0x96                  	// #150
ffffffff80004248:	140000d2 	b	ffffffff80004590 <unicode_to_cp437+0x8f0>
ffffffff8000424c:	528012e0 	mov	w0, #0x97                  	// #151
ffffffff80004250:	140000d0 	b	ffffffff80004590 <unicode_to_cp437+0x8f0>
ffffffff80004254:	52801300 	mov	w0, #0x98                  	// #152
ffffffff80004258:	140000ce 	b	ffffffff80004590 <unicode_to_cp437+0x8f0>
ffffffff8000425c:	52801320 	mov	w0, #0x99                  	// #153
ffffffff80004260:	140000cc 	b	ffffffff80004590 <unicode_to_cp437+0x8f0>
ffffffff80004264:	52801340 	mov	w0, #0x9a                  	// #154
ffffffff80004268:	140000ca 	b	ffffffff80004590 <unicode_to_cp437+0x8f0>
ffffffff8000426c:	52801360 	mov	w0, #0x9b                  	// #155
ffffffff80004270:	140000c8 	b	ffffffff80004590 <unicode_to_cp437+0x8f0>
ffffffff80004274:	52801380 	mov	w0, #0x9c                  	// #156
ffffffff80004278:	140000c6 	b	ffffffff80004590 <unicode_to_cp437+0x8f0>
ffffffff8000427c:	528013a0 	mov	w0, #0x9d                  	// #157
ffffffff80004280:	140000c4 	b	ffffffff80004590 <unicode_to_cp437+0x8f0>
ffffffff80004284:	528013c0 	mov	w0, #0x9e                  	// #158
ffffffff80004288:	140000c2 	b	ffffffff80004590 <unicode_to_cp437+0x8f0>
ffffffff8000428c:	528013e0 	mov	w0, #0x9f                  	// #159
ffffffff80004290:	140000c0 	b	ffffffff80004590 <unicode_to_cp437+0x8f0>
ffffffff80004294:	52801400 	mov	w0, #0xa0                  	// #160
ffffffff80004298:	140000be 	b	ffffffff80004590 <unicode_to_cp437+0x8f0>
ffffffff8000429c:	52801420 	mov	w0, #0xa1                  	// #161
ffffffff800042a0:	140000bc 	b	ffffffff80004590 <unicode_to_cp437+0x8f0>
ffffffff800042a4:	52801440 	mov	w0, #0xa2                  	// #162
ffffffff800042a8:	140000ba 	b	ffffffff80004590 <unicode_to_cp437+0x8f0>
ffffffff800042ac:	52801460 	mov	w0, #0xa3                  	// #163
ffffffff800042b0:	140000b8 	b	ffffffff80004590 <unicode_to_cp437+0x8f0>
ffffffff800042b4:	52801480 	mov	w0, #0xa4                  	// #164
ffffffff800042b8:	140000b6 	b	ffffffff80004590 <unicode_to_cp437+0x8f0>
ffffffff800042bc:	528014a0 	mov	w0, #0xa5                  	// #165
ffffffff800042c0:	140000b4 	b	ffffffff80004590 <unicode_to_cp437+0x8f0>
ffffffff800042c4:	528014c0 	mov	w0, #0xa6                  	// #166
ffffffff800042c8:	140000b2 	b	ffffffff80004590 <unicode_to_cp437+0x8f0>
ffffffff800042cc:	528014e0 	mov	w0, #0xa7                  	// #167
ffffffff800042d0:	140000b0 	b	ffffffff80004590 <unicode_to_cp437+0x8f0>
ffffffff800042d4:	52801500 	mov	w0, #0xa8                  	// #168
ffffffff800042d8:	140000ae 	b	ffffffff80004590 <unicode_to_cp437+0x8f0>
ffffffff800042dc:	52801520 	mov	w0, #0xa9                  	// #169
ffffffff800042e0:	140000ac 	b	ffffffff80004590 <unicode_to_cp437+0x8f0>
ffffffff800042e4:	52801540 	mov	w0, #0xaa                  	// #170
ffffffff800042e8:	140000aa 	b	ffffffff80004590 <unicode_to_cp437+0x8f0>
ffffffff800042ec:	52801560 	mov	w0, #0xab                  	// #171
ffffffff800042f0:	140000a8 	b	ffffffff80004590 <unicode_to_cp437+0x8f0>
ffffffff800042f4:	52801580 	mov	w0, #0xac                  	// #172
ffffffff800042f8:	140000a6 	b	ffffffff80004590 <unicode_to_cp437+0x8f0>
ffffffff800042fc:	528015a0 	mov	w0, #0xad                  	// #173
ffffffff80004300:	140000a4 	b	ffffffff80004590 <unicode_to_cp437+0x8f0>
ffffffff80004304:	528015c0 	mov	w0, #0xae                  	// #174
ffffffff80004308:	140000a2 	b	ffffffff80004590 <unicode_to_cp437+0x8f0>
ffffffff8000430c:	528015e0 	mov	w0, #0xaf                  	// #175
ffffffff80004310:	140000a0 	b	ffffffff80004590 <unicode_to_cp437+0x8f0>
ffffffff80004314:	52801600 	mov	w0, #0xb0                  	// #176
ffffffff80004318:	1400009e 	b	ffffffff80004590 <unicode_to_cp437+0x8f0>
ffffffff8000431c:	52801620 	mov	w0, #0xb1                  	// #177
ffffffff80004320:	1400009c 	b	ffffffff80004590 <unicode_to_cp437+0x8f0>
ffffffff80004324:	52801640 	mov	w0, #0xb2                  	// #178
ffffffff80004328:	1400009a 	b	ffffffff80004590 <unicode_to_cp437+0x8f0>
ffffffff8000432c:	52801660 	mov	w0, #0xb3                  	// #179
ffffffff80004330:	14000098 	b	ffffffff80004590 <unicode_to_cp437+0x8f0>
ffffffff80004334:	52801680 	mov	w0, #0xb4                  	// #180
ffffffff80004338:	14000096 	b	ffffffff80004590 <unicode_to_cp437+0x8f0>
ffffffff8000433c:	528016a0 	mov	w0, #0xb5                  	// #181
ffffffff80004340:	14000094 	b	ffffffff80004590 <unicode_to_cp437+0x8f0>
ffffffff80004344:	528016c0 	mov	w0, #0xb6                  	// #182
ffffffff80004348:	14000092 	b	ffffffff80004590 <unicode_to_cp437+0x8f0>
ffffffff8000434c:	528016e0 	mov	w0, #0xb7                  	// #183
ffffffff80004350:	14000090 	b	ffffffff80004590 <unicode_to_cp437+0x8f0>
ffffffff80004354:	52801700 	mov	w0, #0xb8                  	// #184
ffffffff80004358:	1400008e 	b	ffffffff80004590 <unicode_to_cp437+0x8f0>
ffffffff8000435c:	52801720 	mov	w0, #0xb9                  	// #185
ffffffff80004360:	1400008c 	b	ffffffff80004590 <unicode_to_cp437+0x8f0>
ffffffff80004364:	52801740 	mov	w0, #0xba                  	// #186
ffffffff80004368:	1400008a 	b	ffffffff80004590 <unicode_to_cp437+0x8f0>
ffffffff8000436c:	52801760 	mov	w0, #0xbb                  	// #187
ffffffff80004370:	14000088 	b	ffffffff80004590 <unicode_to_cp437+0x8f0>
ffffffff80004374:	52801780 	mov	w0, #0xbc                  	// #188
ffffffff80004378:	14000086 	b	ffffffff80004590 <unicode_to_cp437+0x8f0>
ffffffff8000437c:	528017a0 	mov	w0, #0xbd                  	// #189
ffffffff80004380:	14000084 	b	ffffffff80004590 <unicode_to_cp437+0x8f0>
ffffffff80004384:	528017c0 	mov	w0, #0xbe                  	// #190
ffffffff80004388:	14000082 	b	ffffffff80004590 <unicode_to_cp437+0x8f0>
ffffffff8000438c:	528017e0 	mov	w0, #0xbf                  	// #191
ffffffff80004390:	14000080 	b	ffffffff80004590 <unicode_to_cp437+0x8f0>
ffffffff80004394:	52801800 	mov	w0, #0xc0                  	// #192
ffffffff80004398:	1400007e 	b	ffffffff80004590 <unicode_to_cp437+0x8f0>
ffffffff8000439c:	52801820 	mov	w0, #0xc1                  	// #193
ffffffff800043a0:	1400007c 	b	ffffffff80004590 <unicode_to_cp437+0x8f0>
ffffffff800043a4:	52801840 	mov	w0, #0xc2                  	// #194
ffffffff800043a8:	1400007a 	b	ffffffff80004590 <unicode_to_cp437+0x8f0>
ffffffff800043ac:	52801860 	mov	w0, #0xc3                  	// #195
ffffffff800043b0:	14000078 	b	ffffffff80004590 <unicode_to_cp437+0x8f0>
ffffffff800043b4:	52801880 	mov	w0, #0xc4                  	// #196
ffffffff800043b8:	14000076 	b	ffffffff80004590 <unicode_to_cp437+0x8f0>
ffffffff800043bc:	528018a0 	mov	w0, #0xc5                  	// #197
ffffffff800043c0:	14000074 	b	ffffffff80004590 <unicode_to_cp437+0x8f0>
ffffffff800043c4:	528018c0 	mov	w0, #0xc6                  	// #198
ffffffff800043c8:	14000072 	b	ffffffff80004590 <unicode_to_cp437+0x8f0>
ffffffff800043cc:	528018e0 	mov	w0, #0xc7                  	// #199
ffffffff800043d0:	14000070 	b	ffffffff80004590 <unicode_to_cp437+0x8f0>
ffffffff800043d4:	52801900 	mov	w0, #0xc8                  	// #200
ffffffff800043d8:	1400006e 	b	ffffffff80004590 <unicode_to_cp437+0x8f0>
ffffffff800043dc:	52801920 	mov	w0, #0xc9                  	// #201
ffffffff800043e0:	1400006c 	b	ffffffff80004590 <unicode_to_cp437+0x8f0>
ffffffff800043e4:	52801940 	mov	w0, #0xca                  	// #202
ffffffff800043e8:	1400006a 	b	ffffffff80004590 <unicode_to_cp437+0x8f0>
ffffffff800043ec:	52801960 	mov	w0, #0xcb                  	// #203
ffffffff800043f0:	14000068 	b	ffffffff80004590 <unicode_to_cp437+0x8f0>
ffffffff800043f4:	52801980 	mov	w0, #0xcc                  	// #204
ffffffff800043f8:	14000066 	b	ffffffff80004590 <unicode_to_cp437+0x8f0>
ffffffff800043fc:	528019a0 	mov	w0, #0xcd                  	// #205
ffffffff80004400:	14000064 	b	ffffffff80004590 <unicode_to_cp437+0x8f0>
ffffffff80004404:	528019c0 	mov	w0, #0xce                  	// #206
ffffffff80004408:	14000062 	b	ffffffff80004590 <unicode_to_cp437+0x8f0>
ffffffff8000440c:	528019e0 	mov	w0, #0xcf                  	// #207
ffffffff80004410:	14000060 	b	ffffffff80004590 <unicode_to_cp437+0x8f0>
ffffffff80004414:	52801a00 	mov	w0, #0xd0                  	// #208
ffffffff80004418:	1400005e 	b	ffffffff80004590 <unicode_to_cp437+0x8f0>
ffffffff8000441c:	52801a20 	mov	w0, #0xd1                  	// #209
ffffffff80004420:	1400005c 	b	ffffffff80004590 <unicode_to_cp437+0x8f0>
ffffffff80004424:	52801a40 	mov	w0, #0xd2                  	// #210
ffffffff80004428:	1400005a 	b	ffffffff80004590 <unicode_to_cp437+0x8f0>
ffffffff8000442c:	52801a60 	mov	w0, #0xd3                  	// #211
ffffffff80004430:	14000058 	b	ffffffff80004590 <unicode_to_cp437+0x8f0>
ffffffff80004434:	52801a80 	mov	w0, #0xd4                  	// #212
ffffffff80004438:	14000056 	b	ffffffff80004590 <unicode_to_cp437+0x8f0>
ffffffff8000443c:	52801aa0 	mov	w0, #0xd5                  	// #213
ffffffff80004440:	14000054 	b	ffffffff80004590 <unicode_to_cp437+0x8f0>
ffffffff80004444:	52801ac0 	mov	w0, #0xd6                  	// #214
ffffffff80004448:	14000052 	b	ffffffff80004590 <unicode_to_cp437+0x8f0>
ffffffff8000444c:	52801ae0 	mov	w0, #0xd7                  	// #215
ffffffff80004450:	14000050 	b	ffffffff80004590 <unicode_to_cp437+0x8f0>
ffffffff80004454:	52801b00 	mov	w0, #0xd8                  	// #216
ffffffff80004458:	1400004e 	b	ffffffff80004590 <unicode_to_cp437+0x8f0>
ffffffff8000445c:	52801b20 	mov	w0, #0xd9                  	// #217
ffffffff80004460:	1400004c 	b	ffffffff80004590 <unicode_to_cp437+0x8f0>
ffffffff80004464:	52801b40 	mov	w0, #0xda                  	// #218
ffffffff80004468:	1400004a 	b	ffffffff80004590 <unicode_to_cp437+0x8f0>
ffffffff8000446c:	52801b60 	mov	w0, #0xdb                  	// #219
ffffffff80004470:	14000048 	b	ffffffff80004590 <unicode_to_cp437+0x8f0>
ffffffff80004474:	52801b80 	mov	w0, #0xdc                  	// #220
ffffffff80004478:	14000046 	b	ffffffff80004590 <unicode_to_cp437+0x8f0>
ffffffff8000447c:	52801ba0 	mov	w0, #0xdd                  	// #221
ffffffff80004480:	14000044 	b	ffffffff80004590 <unicode_to_cp437+0x8f0>
ffffffff80004484:	52801bc0 	mov	w0, #0xde                  	// #222
ffffffff80004488:	14000042 	b	ffffffff80004590 <unicode_to_cp437+0x8f0>
ffffffff8000448c:	52801be0 	mov	w0, #0xdf                  	// #223
ffffffff80004490:	14000040 	b	ffffffff80004590 <unicode_to_cp437+0x8f0>
ffffffff80004494:	52801c00 	mov	w0, #0xe0                  	// #224
ffffffff80004498:	1400003e 	b	ffffffff80004590 <unicode_to_cp437+0x8f0>
ffffffff8000449c:	52801c20 	mov	w0, #0xe1                  	// #225
ffffffff800044a0:	1400003c 	b	ffffffff80004590 <unicode_to_cp437+0x8f0>
ffffffff800044a4:	52801c40 	mov	w0, #0xe2                  	// #226
ffffffff800044a8:	1400003a 	b	ffffffff80004590 <unicode_to_cp437+0x8f0>
ffffffff800044ac:	52801c60 	mov	w0, #0xe3                  	// #227
ffffffff800044b0:	14000038 	b	ffffffff80004590 <unicode_to_cp437+0x8f0>
ffffffff800044b4:	52801c80 	mov	w0, #0xe4                  	// #228
ffffffff800044b8:	14000036 	b	ffffffff80004590 <unicode_to_cp437+0x8f0>
ffffffff800044bc:	52801ca0 	mov	w0, #0xe5                  	// #229
ffffffff800044c0:	14000034 	b	ffffffff80004590 <unicode_to_cp437+0x8f0>
ffffffff800044c4:	52801cc0 	mov	w0, #0xe6                  	// #230
ffffffff800044c8:	14000032 	b	ffffffff80004590 <unicode_to_cp437+0x8f0>
ffffffff800044cc:	52801ce0 	mov	w0, #0xe7                  	// #231
ffffffff800044d0:	14000030 	b	ffffffff80004590 <unicode_to_cp437+0x8f0>
ffffffff800044d4:	52801d00 	mov	w0, #0xe8                  	// #232
ffffffff800044d8:	1400002e 	b	ffffffff80004590 <unicode_to_cp437+0x8f0>
ffffffff800044dc:	52801d20 	mov	w0, #0xe9                  	// #233
ffffffff800044e0:	1400002c 	b	ffffffff80004590 <unicode_to_cp437+0x8f0>
ffffffff800044e4:	52801d40 	mov	w0, #0xea                  	// #234
ffffffff800044e8:	1400002a 	b	ffffffff80004590 <unicode_to_cp437+0x8f0>
ffffffff800044ec:	52801d60 	mov	w0, #0xeb                  	// #235
ffffffff800044f0:	14000028 	b	ffffffff80004590 <unicode_to_cp437+0x8f0>
ffffffff800044f4:	52801d80 	mov	w0, #0xec                  	// #236
ffffffff800044f8:	14000026 	b	ffffffff80004590 <unicode_to_cp437+0x8f0>
ffffffff800044fc:	52801da0 	mov	w0, #0xed                  	// #237
ffffffff80004500:	14000024 	b	ffffffff80004590 <unicode_to_cp437+0x8f0>
ffffffff80004504:	52801dc0 	mov	w0, #0xee                  	// #238
ffffffff80004508:	14000022 	b	ffffffff80004590 <unicode_to_cp437+0x8f0>
ffffffff8000450c:	52801de0 	mov	w0, #0xef                  	// #239
ffffffff80004510:	14000020 	b	ffffffff80004590 <unicode_to_cp437+0x8f0>
ffffffff80004514:	52801e00 	mov	w0, #0xf0                  	// #240
ffffffff80004518:	1400001e 	b	ffffffff80004590 <unicode_to_cp437+0x8f0>
ffffffff8000451c:	52801e20 	mov	w0, #0xf1                  	// #241
ffffffff80004520:	1400001c 	b	ffffffff80004590 <unicode_to_cp437+0x8f0>
ffffffff80004524:	52801e40 	mov	w0, #0xf2                  	// #242
ffffffff80004528:	1400001a 	b	ffffffff80004590 <unicode_to_cp437+0x8f0>
ffffffff8000452c:	52801e60 	mov	w0, #0xf3                  	// #243
ffffffff80004530:	14000018 	b	ffffffff80004590 <unicode_to_cp437+0x8f0>
ffffffff80004534:	52801e80 	mov	w0, #0xf4                  	// #244
ffffffff80004538:	14000016 	b	ffffffff80004590 <unicode_to_cp437+0x8f0>
ffffffff8000453c:	52801ea0 	mov	w0, #0xf5                  	// #245
ffffffff80004540:	14000014 	b	ffffffff80004590 <unicode_to_cp437+0x8f0>
ffffffff80004544:	52801ec0 	mov	w0, #0xf6                  	// #246
ffffffff80004548:	14000012 	b	ffffffff80004590 <unicode_to_cp437+0x8f0>
ffffffff8000454c:	52801ee0 	mov	w0, #0xf7                  	// #247
ffffffff80004550:	14000010 	b	ffffffff80004590 <unicode_to_cp437+0x8f0>
ffffffff80004554:	52801f00 	mov	w0, #0xf8                  	// #248
ffffffff80004558:	1400000e 	b	ffffffff80004590 <unicode_to_cp437+0x8f0>
ffffffff8000455c:	52801f20 	mov	w0, #0xf9                  	// #249
ffffffff80004560:	1400000c 	b	ffffffff80004590 <unicode_to_cp437+0x8f0>
ffffffff80004564:	52801f40 	mov	w0, #0xfa                  	// #250
ffffffff80004568:	1400000a 	b	ffffffff80004590 <unicode_to_cp437+0x8f0>
ffffffff8000456c:	52801f60 	mov	w0, #0xfb                  	// #251
ffffffff80004570:	14000008 	b	ffffffff80004590 <unicode_to_cp437+0x8f0>
ffffffff80004574:	52801f80 	mov	w0, #0xfc                  	// #252
ffffffff80004578:	14000006 	b	ffffffff80004590 <unicode_to_cp437+0x8f0>
ffffffff8000457c:	52801fa0 	mov	w0, #0xfd                  	// #253
ffffffff80004580:	14000004 	b	ffffffff80004590 <unicode_to_cp437+0x8f0>
ffffffff80004584:	52801fc0 	mov	w0, #0xfe                  	// #254
ffffffff80004588:	14000002 	b	ffffffff80004590 <unicode_to_cp437+0x8f0>
ffffffff8000458c:	12800000 	mov	w0, #0xffffffff            	// #-1
ffffffff80004590:	910043ff 	add	sp, sp, #0x10
ffffffff80004594:	d65f03c0 	ret

ffffffff80004598 <flanterm_putchar>:
ffffffff80004598:	a9bb7bfd 	stp	x29, x30, [sp, #-80]!
ffffffff8000459c:	910003fd 	mov	x29, sp
ffffffff800045a0:	f9000fe0 	str	x0, [sp, #24]
ffffffff800045a4:	39005fe1 	strb	w1, [sp, #23]
ffffffff800045a8:	f9400fe0 	ldr	x0, [sp, #24]
ffffffff800045ac:	39404400 	ldrb	w0, [x0, #17]
ffffffff800045b0:	12000000 	and	w0, w0, #0x1
ffffffff800045b4:	7100001f 	cmp	w0, #0x0
ffffffff800045b8:	540000e1 	b.ne	ffffffff800045d4 <flanterm_putchar+0x3c>  // b.any
ffffffff800045bc:	39405fe0 	ldrb	w0, [sp, #23]
ffffffff800045c0:	7100601f 	cmp	w0, #0x18
ffffffff800045c4:	54000080 	b.eq	ffffffff800045d4 <flanterm_putchar+0x3c>  // b.none
ffffffff800045c8:	39405fe0 	ldrb	w0, [sp, #23]
ffffffff800045cc:	7100681f 	cmp	w0, #0x1a
ffffffff800045d0:	54000241 	b.ne	ffffffff80004618 <flanterm_putchar+0x80>  // b.any
ffffffff800045d4:	f9400fe0 	ldr	x0, [sp, #24]
ffffffff800045d8:	3900441f 	strb	wzr, [x0, #17]
ffffffff800045dc:	f9400fe0 	ldr	x0, [sp, #24]
ffffffff800045e0:	3900341f 	strb	wzr, [x0, #13]
ffffffff800045e4:	f9400fe0 	ldr	x0, [sp, #24]
ffffffff800045e8:	3900301f 	strb	wzr, [x0, #12]
ffffffff800045ec:	f9400fe0 	ldr	x0, [sp, #24]
ffffffff800045f0:	39002c1f 	strb	wzr, [x0, #11]
ffffffff800045f4:	f9400fe0 	ldr	x0, [sp, #24]
ffffffff800045f8:	f900101f 	str	xzr, [x0, #32]
ffffffff800045fc:	f9400fe0 	ldr	x0, [sp, #24]
ffffffff80004600:	3900381f 	strb	wzr, [x0, #14]
ffffffff80004604:	f9400fe0 	ldr	x0, [sp, #24]
ffffffff80004608:	39003c1f 	strb	wzr, [x0, #15]
ffffffff8000460c:	f9400fe0 	ldr	x0, [sp, #24]
ffffffff80004610:	3900a01f 	strb	wzr, [x0, #40]
ffffffff80004614:	140001a4 	b	ffffffff80004ca4 <flanterm_putchar+0x70c>
ffffffff80004618:	f9400fe0 	ldr	x0, [sp, #24]
ffffffff8000461c:	f9401000 	ldr	x0, [x0, #32]
ffffffff80004620:	f100001f 	cmp	x0, #0x0
ffffffff80004624:	54000980 	b.eq	ffffffff80004754 <flanterm_putchar+0x1bc>  // b.none
ffffffff80004628:	39405fe0 	ldrb	w0, [sp, #23]
ffffffff8000462c:	121a0400 	and	w0, w0, #0xc0
ffffffff80004630:	7102001f 	cmp	w0, #0x80
ffffffff80004634:	54000080 	b.eq	ffffffff80004644 <flanterm_putchar+0xac>  // b.none
ffffffff80004638:	f9400fe0 	ldr	x0, [sp, #24]
ffffffff8000463c:	f900101f 	str	xzr, [x0, #32]
ffffffff80004640:	14000046 	b	ffffffff80004758 <flanterm_putchar+0x1c0>
ffffffff80004644:	f9400fe0 	ldr	x0, [sp, #24]
ffffffff80004648:	f9401000 	ldr	x0, [x0, #32]
ffffffff8000464c:	d1000401 	sub	x1, x0, #0x1
ffffffff80004650:	f9400fe0 	ldr	x0, [sp, #24]
ffffffff80004654:	f9001001 	str	x1, [x0, #32]
ffffffff80004658:	f9400fe0 	ldr	x0, [sp, #24]
ffffffff8000465c:	f9400c01 	ldr	x1, [x0, #24]
ffffffff80004660:	39405fe0 	ldrb	w0, [sp, #23]
ffffffff80004664:	92401402 	and	x2, x0, #0x3f
ffffffff80004668:	f9400fe0 	ldr	x0, [sp, #24]
ffffffff8000466c:	f9401000 	ldr	x0, [x0, #32]
ffffffff80004670:	2a0003e3 	mov	w3, w0
ffffffff80004674:	2a0303e0 	mov	w0, w3
ffffffff80004678:	531f7800 	lsl	w0, w0, #1
ffffffff8000467c:	0b030000 	add	w0, w0, w3
ffffffff80004680:	531f7800 	lsl	w0, w0, #1
ffffffff80004684:	9ac02040 	lsl	x0, x2, x0
ffffffff80004688:	aa000021 	orr	x1, x1, x0
ffffffff8000468c:	f9400fe0 	ldr	x0, [sp, #24]
ffffffff80004690:	f9000c01 	str	x1, [x0, #24]
ffffffff80004694:	f9400fe0 	ldr	x0, [sp, #24]
ffffffff80004698:	f9401000 	ldr	x0, [x0, #32]
ffffffff8000469c:	f100001f 	cmp	x0, #0x0
ffffffff800046a0:	54002f01 	b.ne	ffffffff80004c80 <flanterm_putchar+0x6e8>  // b.any
ffffffff800046a4:	f9400fe0 	ldr	x0, [sp, #24]
ffffffff800046a8:	f9400c00 	ldr	x0, [x0, #24]
ffffffff800046ac:	97fffd7d 	bl	ffffffff80003ca0 <unicode_to_cp437>
ffffffff800046b0:	b9003fe0 	str	w0, [sp, #60]
ffffffff800046b4:	b9403fe0 	ldr	w0, [sp, #60]
ffffffff800046b8:	3100041f 	cmn	w0, #0x1
ffffffff800046bc:	540003c1 	b.ne	ffffffff80004734 <flanterm_putchar+0x19c>  // b.any
ffffffff800046c0:	f9400fe0 	ldr	x0, [sp, #24]
ffffffff800046c4:	f9400c00 	ldr	x0, [x0, #24]
ffffffff800046c8:	97fffcf7 	bl	ffffffff80003aa4 <mk_wcwidth>
ffffffff800046cc:	93407c00 	sxtw	x0, w0
ffffffff800046d0:	f9001be0 	str	x0, [sp, #48]
ffffffff800046d4:	f9401be0 	ldr	x0, [sp, #48]
ffffffff800046d8:	f100001f 	cmp	x0, #0x0
ffffffff800046dc:	540000c0 	b.eq	ffffffff800046f4 <flanterm_putchar+0x15c>  // b.none
ffffffff800046e0:	f9400fe0 	ldr	x0, [sp, #24]
ffffffff800046e4:	f9407802 	ldr	x2, [x0, #240]
ffffffff800046e8:	12800021 	mov	w1, #0xfffffffe            	// #-2
ffffffff800046ec:	f9400fe0 	ldr	x0, [sp, #24]
ffffffff800046f0:	d63f0040 	blr	x2
ffffffff800046f4:	d2800020 	mov	x0, #0x1                   	// #1
ffffffff800046f8:	f90027e0 	str	x0, [sp, #72]
ffffffff800046fc:	14000009 	b	ffffffff80004720 <flanterm_putchar+0x188>
ffffffff80004700:	f9400fe0 	ldr	x0, [sp, #24]
ffffffff80004704:	f9407802 	ldr	x2, [x0, #240]
ffffffff80004708:	52800401 	mov	w1, #0x20                  	// #32
ffffffff8000470c:	f9400fe0 	ldr	x0, [sp, #24]
ffffffff80004710:	d63f0040 	blr	x2
ffffffff80004714:	f94027e0 	ldr	x0, [sp, #72]
ffffffff80004718:	91000400 	add	x0, x0, #0x1
ffffffff8000471c:	f90027e0 	str	x0, [sp, #72]
ffffffff80004720:	f94027e1 	ldr	x1, [sp, #72]
ffffffff80004724:	f9401be0 	ldr	x0, [sp, #48]
ffffffff80004728:	eb00003f 	cmp	x1, x0
ffffffff8000472c:	54fffea3 	b.cc	ffffffff80004700 <flanterm_putchar+0x168>  // b.lo, b.ul, b.last
ffffffff80004730:	1400015d 	b	ffffffff80004ca4 <flanterm_putchar+0x70c>
ffffffff80004734:	f9400fe0 	ldr	x0, [sp, #24]
ffffffff80004738:	f9407802 	ldr	x2, [x0, #240]
ffffffff8000473c:	b9403fe0 	ldr	w0, [sp, #60]
ffffffff80004740:	12001c00 	and	w0, w0, #0xff
ffffffff80004744:	2a0003e1 	mov	w1, w0
ffffffff80004748:	f9400fe0 	ldr	x0, [sp, #24]
ffffffff8000474c:	d63f0040 	blr	x2
ffffffff80004750:	14000155 	b	ffffffff80004ca4 <flanterm_putchar+0x70c>
ffffffff80004754:	d503201f 	nop
ffffffff80004758:	39405fe0 	ldrb	w0, [sp, #23]
ffffffff8000475c:	7102fc1f 	cmp	w0, #0xbf
ffffffff80004760:	54000649 	b.ls	ffffffff80004828 <flanterm_putchar+0x290>  // b.plast
ffffffff80004764:	39405fe0 	ldrb	w0, [sp, #23]
ffffffff80004768:	7103dc1f 	cmp	w0, #0xf7
ffffffff8000476c:	540005e8 	b.hi	ffffffff80004828 <flanterm_putchar+0x290>  // b.pmore
ffffffff80004770:	39405fe0 	ldrb	w0, [sp, #23]
ffffffff80004774:	7102fc1f 	cmp	w0, #0xbf
ffffffff80004778:	540001a9 	b.ls	ffffffff800047ac <flanterm_putchar+0x214>  // b.plast
ffffffff8000477c:	39405fe0 	ldrb	w0, [sp, #23]
ffffffff80004780:	71037c1f 	cmp	w0, #0xdf
ffffffff80004784:	54000148 	b.hi	ffffffff800047ac <flanterm_putchar+0x214>  // b.pmore
ffffffff80004788:	f9400fe0 	ldr	x0, [sp, #24]
ffffffff8000478c:	d2800021 	mov	x1, #0x1                   	// #1
ffffffff80004790:	f9001001 	str	x1, [x0, #32]
ffffffff80004794:	39405fe0 	ldrb	w0, [sp, #23]
ffffffff80004798:	d37ae400 	lsl	x0, x0, #6
ffffffff8000479c:	927a1001 	and	x1, x0, #0x7c0
ffffffff800047a0:	f9400fe0 	ldr	x0, [sp, #24]
ffffffff800047a4:	f9000c01 	str	x1, [x0, #24]
ffffffff800047a8:	1400001f 	b	ffffffff80004824 <flanterm_putchar+0x28c>
ffffffff800047ac:	39405fe0 	ldrb	w0, [sp, #23]
ffffffff800047b0:	71037c1f 	cmp	w0, #0xdf
ffffffff800047b4:	540001a9 	b.ls	ffffffff800047e8 <flanterm_putchar+0x250>  // b.plast
ffffffff800047b8:	39405fe0 	ldrb	w0, [sp, #23]
ffffffff800047bc:	7103bc1f 	cmp	w0, #0xef
ffffffff800047c0:	54000148 	b.hi	ffffffff800047e8 <flanterm_putchar+0x250>  // b.pmore
ffffffff800047c4:	f9400fe0 	ldr	x0, [sp, #24]
ffffffff800047c8:	d2800041 	mov	x1, #0x2                   	// #2
ffffffff800047cc:	f9001001 	str	x1, [x0, #32]
ffffffff800047d0:	39405fe0 	ldrb	w0, [sp, #23]
ffffffff800047d4:	d374cc00 	lsl	x0, x0, #12
ffffffff800047d8:	92403c01 	and	x1, x0, #0xffff
ffffffff800047dc:	f9400fe0 	ldr	x0, [sp, #24]
ffffffff800047e0:	f9000c01 	str	x1, [x0, #24]
ffffffff800047e4:	14000010 	b	ffffffff80004824 <flanterm_putchar+0x28c>
ffffffff800047e8:	39405fe0 	ldrb	w0, [sp, #23]
ffffffff800047ec:	7103bc1f 	cmp	w0, #0xef
ffffffff800047f0:	540024c9 	b.ls	ffffffff80004c88 <flanterm_putchar+0x6f0>  // b.plast
ffffffff800047f4:	39405fe0 	ldrb	w0, [sp, #23]
ffffffff800047f8:	7103dc1f 	cmp	w0, #0xf7
ffffffff800047fc:	54002468 	b.hi	ffffffff80004c88 <flanterm_putchar+0x6f0>  // b.pmore
ffffffff80004800:	f9400fe0 	ldr	x0, [sp, #24]
ffffffff80004804:	d2800061 	mov	x1, #0x3                   	// #3
ffffffff80004808:	f9001001 	str	x1, [x0, #32]
ffffffff8000480c:	39405fe0 	ldrb	w0, [sp, #23]
ffffffff80004810:	d36eb400 	lsl	x0, x0, #18
ffffffff80004814:	926e0801 	and	x1, x0, #0x1c0000
ffffffff80004818:	f9400fe0 	ldr	x0, [sp, #24]
ffffffff8000481c:	f9000c01 	str	x1, [x0, #24]
ffffffff80004820:	1400011a 	b	ffffffff80004c88 <flanterm_putchar+0x6f0>
ffffffff80004824:	14000119 	b	ffffffff80004c88 <flanterm_putchar+0x6f0>
ffffffff80004828:	f9400fe0 	ldr	x0, [sp, #24]
ffffffff8000482c:	39403400 	ldrb	w0, [x0, #13]
ffffffff80004830:	12000000 	and	w0, w0, #0x1
ffffffff80004834:	7100001f 	cmp	w0, #0x0
ffffffff80004838:	540000a0 	b.eq	ffffffff8000484c <flanterm_putchar+0x2b4>  // b.none
ffffffff8000483c:	39405fe1 	ldrb	w1, [sp, #23]
ffffffff80004840:	f9400fe0 	ldr	x0, [sp, #24]
ffffffff80004844:	97fffaa0 	bl	ffffffff800032c4 <escape_parse>
ffffffff80004848:	14000117 	b	ffffffff80004ca4 <flanterm_putchar+0x70c>
ffffffff8000484c:	f9400fe0 	ldr	x0, [sp, #24]
ffffffff80004850:	3940a000 	ldrb	w0, [x0, #40]
ffffffff80004854:	7100001f 	cmp	w0, #0x0
ffffffff80004858:	540003c0 	b.eq	ffffffff800048d0 <flanterm_putchar+0x338>  // b.none
ffffffff8000485c:	f9400fe0 	ldr	x0, [sp, #24]
ffffffff80004860:	3940a000 	ldrb	w0, [x0, #40]
ffffffff80004864:	51000400 	sub	w0, w0, #0x1
ffffffff80004868:	12001c01 	and	w1, w0, #0xff
ffffffff8000486c:	f9400fe0 	ldr	x0, [sp, #24]
ffffffff80004870:	3900a001 	strb	w1, [x0, #40]
ffffffff80004874:	39405fe0 	ldrb	w0, [sp, #23]
ffffffff80004878:	7100c01f 	cmp	w0, #0x30
ffffffff8000487c:	54000140 	b.eq	ffffffff800048a4 <flanterm_putchar+0x30c>  // b.none
ffffffff80004880:	7101081f 	cmp	w0, #0x42
ffffffff80004884:	54000201 	b.ne	ffffffff800048c4 <flanterm_putchar+0x32c>  // b.any
ffffffff80004888:	f9400fe0 	ldr	x0, [sp, #24]
ffffffff8000488c:	3940a000 	ldrb	w0, [x0, #40]
ffffffff80004890:	f9400fe1 	ldr	x1, [sp, #24]
ffffffff80004894:	93407c00 	sxtw	x0, w0
ffffffff80004898:	8b000020 	add	x0, x1, x0
ffffffff8000489c:	3900a41f 	strb	wzr, [x0, #41]
ffffffff800048a0:	14000009 	b	ffffffff800048c4 <flanterm_putchar+0x32c>
ffffffff800048a4:	f9400fe0 	ldr	x0, [sp, #24]
ffffffff800048a8:	3940a000 	ldrb	w0, [x0, #40]
ffffffff800048ac:	f9400fe1 	ldr	x1, [sp, #24]
ffffffff800048b0:	93407c00 	sxtw	x0, w0
ffffffff800048b4:	8b000020 	add	x0, x1, x0
ffffffff800048b8:	52800021 	mov	w1, #0x1                   	// #1
ffffffff800048bc:	3900a401 	strb	w1, [x0, #41]
ffffffff800048c0:	d503201f 	nop
ffffffff800048c4:	f9400fe0 	ldr	x0, [sp, #24]
ffffffff800048c8:	3900a01f 	strb	wzr, [x0, #40]
ffffffff800048cc:	140000f6 	b	ffffffff80004ca4 <flanterm_putchar+0x70c>
ffffffff800048d0:	f9400fe0 	ldr	x0, [sp, #24]
ffffffff800048d4:	f9408403 	ldr	x3, [x0, #264]
ffffffff800048d8:	910083e1 	add	x1, sp, #0x20
ffffffff800048dc:	9100a3e0 	add	x0, sp, #0x28
ffffffff800048e0:	aa0103e2 	mov	x2, x1
ffffffff800048e4:	aa0003e1 	mov	x1, x0
ffffffff800048e8:	f9400fe0 	ldr	x0, [sp, #24]
ffffffff800048ec:	d63f0060 	blr	x3
ffffffff800048f0:	39405fe0 	ldrb	w0, [sp, #23]
ffffffff800048f4:	71026c1f 	cmp	w0, #0x9b
ffffffff800048f8:	54000500 	b.eq	ffffffff80004998 <flanterm_putchar+0x400>  // b.none
ffffffff800048fc:	71026c1f 	cmp	w0, #0x9b
ffffffff80004900:	5400148c 	b.gt	ffffffff80004b90 <flanterm_putchar+0x5f8>
ffffffff80004904:	7101fc1f 	cmp	w0, #0x7f
ffffffff80004908:	54001c40 	b.eq	ffffffff80004c90 <flanterm_putchar+0x6f8>  // b.none
ffffffff8000490c:	7101fc1f 	cmp	w0, #0x7f
ffffffff80004910:	5400140c 	b.gt	ffffffff80004b90 <flanterm_putchar+0x5f8>
ffffffff80004914:	71006c1f 	cmp	w0, #0x1b
ffffffff80004918:	54000460 	b.eq	ffffffff800049a4 <flanterm_putchar+0x40c>  // b.none
ffffffff8000491c:	71006c1f 	cmp	w0, #0x1b
ffffffff80004920:	5400138c 	b.gt	ffffffff80004b90 <flanterm_putchar+0x5f8>
ffffffff80004924:	71003c1f 	cmp	w0, #0xf
ffffffff80004928:	540012e0 	b.eq	ffffffff80004b84 <flanterm_putchar+0x5ec>  // b.none
ffffffff8000492c:	71003c1f 	cmp	w0, #0xf
ffffffff80004930:	5400130c 	b.gt	ffffffff80004b90 <flanterm_putchar+0x5f8>
ffffffff80004934:	7100381f 	cmp	w0, #0xe
ffffffff80004938:	540011e0 	b.eq	ffffffff80004b74 <flanterm_putchar+0x5dc>  // b.none
ffffffff8000493c:	7100381f 	cmp	w0, #0xe
ffffffff80004940:	5400128c 	b.gt	ffffffff80004b90 <flanterm_putchar+0x5f8>
ffffffff80004944:	7100341f 	cmp	w0, #0xd
ffffffff80004948:	54000ec0 	b.eq	ffffffff80004b20 <flanterm_putchar+0x588>  // b.none
ffffffff8000494c:	7100341f 	cmp	w0, #0xd
ffffffff80004950:	5400120c 	b.gt	ffffffff80004b90 <flanterm_putchar+0x5f8>
ffffffff80004954:	7100301f 	cmp	w0, #0xc
ffffffff80004958:	540011cc 	b.gt	ffffffff80004b90 <flanterm_putchar+0x5f8>
ffffffff8000495c:	7100281f 	cmp	w0, #0xa
ffffffff80004960:	5400076a 	b.ge	ffffffff80004a4c <flanterm_putchar+0x4b4>  // b.tcont
ffffffff80004964:	7100241f 	cmp	w0, #0x9
ffffffff80004968:	540002a0 	b.eq	ffffffff800049bc <flanterm_putchar+0x424>  // b.none
ffffffff8000496c:	7100241f 	cmp	w0, #0x9
ffffffff80004970:	5400110c 	b.gt	ffffffff80004b90 <flanterm_putchar+0x5f8>
ffffffff80004974:	7100201f 	cmp	w0, #0x8
ffffffff80004978:	54000c00 	b.eq	ffffffff80004af8 <flanterm_putchar+0x560>  // b.none
ffffffff8000497c:	7100201f 	cmp	w0, #0x8
ffffffff80004980:	5400108c 	b.gt	ffffffff80004b90 <flanterm_putchar+0x5f8>
ffffffff80004984:	7100001f 	cmp	w0, #0x0
ffffffff80004988:	54001840 	b.eq	ffffffff80004c90 <flanterm_putchar+0x6f8>  // b.none
ffffffff8000498c:	71001c1f 	cmp	w0, #0x7
ffffffff80004990:	54000d80 	b.eq	ffffffff80004b40 <flanterm_putchar+0x5a8>  // b.none
ffffffff80004994:	1400007f 	b	ffffffff80004b90 <flanterm_putchar+0x5f8>
ffffffff80004998:	f9400fe0 	ldr	x0, [sp, #24]
ffffffff8000499c:	52800021 	mov	w1, #0x1                   	// #1
ffffffff800049a0:	39003001 	strb	w1, [x0, #12]
ffffffff800049a4:	f9400fe0 	ldr	x0, [sp, #24]
ffffffff800049a8:	f9001c1f 	str	xzr, [x0, #56]
ffffffff800049ac:	f9400fe0 	ldr	x0, [sp, #24]
ffffffff800049b0:	52800021 	mov	w1, #0x1                   	// #1
ffffffff800049b4:	39003401 	strb	w1, [x0, #13]
ffffffff800049b8:	140000bb 	b	ffffffff80004ca4 <flanterm_putchar+0x70c>
ffffffff800049bc:	f94017e1 	ldr	x1, [sp, #40]
ffffffff800049c0:	f9400fe0 	ldr	x0, [sp, #24]
ffffffff800049c4:	f9400000 	ldr	x0, [x0]
ffffffff800049c8:	9ac00820 	udiv	x0, x1, x0
ffffffff800049cc:	91000401 	add	x1, x0, #0x1
ffffffff800049d0:	f9400fe0 	ldr	x0, [sp, #24]
ffffffff800049d4:	f9407400 	ldr	x0, [x0, #232]
ffffffff800049d8:	eb00003f 	cmp	x1, x0
ffffffff800049dc:	54000183 	b.cc	ffffffff80004a0c <flanterm_putchar+0x474>  // b.lo, b.ul, b.last
ffffffff800049e0:	f9400fe0 	ldr	x0, [sp, #24]
ffffffff800049e4:	f9408003 	ldr	x3, [x0, #256]
ffffffff800049e8:	f9400fe0 	ldr	x0, [sp, #24]
ffffffff800049ec:	f9407400 	ldr	x0, [x0, #232]
ffffffff800049f0:	d1000400 	sub	x0, x0, #0x1
ffffffff800049f4:	f94013e1 	ldr	x1, [sp, #32]
ffffffff800049f8:	aa0103e2 	mov	x2, x1
ffffffff800049fc:	aa0003e1 	mov	x1, x0
ffffffff80004a00:	f9400fe0 	ldr	x0, [sp, #24]
ffffffff80004a04:	d63f0060 	blr	x3
ffffffff80004a08:	140000a7 	b	ffffffff80004ca4 <flanterm_putchar+0x70c>
ffffffff80004a0c:	f9400fe0 	ldr	x0, [sp, #24]
ffffffff80004a10:	f9408003 	ldr	x3, [x0, #256]
ffffffff80004a14:	f94017e1 	ldr	x1, [sp, #40]
ffffffff80004a18:	f9400fe0 	ldr	x0, [sp, #24]
ffffffff80004a1c:	f9400000 	ldr	x0, [x0]
ffffffff80004a20:	9ac00820 	udiv	x0, x1, x0
ffffffff80004a24:	91000401 	add	x1, x0, #0x1
ffffffff80004a28:	f9400fe0 	ldr	x0, [sp, #24]
ffffffff80004a2c:	f9400000 	ldr	x0, [x0]
ffffffff80004a30:	9b007c20 	mul	x0, x1, x0
ffffffff80004a34:	f94013e1 	ldr	x1, [sp, #32]
ffffffff80004a38:	aa0103e2 	mov	x2, x1
ffffffff80004a3c:	aa0003e1 	mov	x1, x0
ffffffff80004a40:	f9400fe0 	ldr	x0, [sp, #24]
ffffffff80004a44:	d63f0060 	blr	x3
ffffffff80004a48:	14000097 	b	ffffffff80004ca4 <flanterm_putchar+0x70c>
ffffffff80004a4c:	f9400fe0 	ldr	x0, [sp, #24]
ffffffff80004a50:	f9403800 	ldr	x0, [x0, #112]
ffffffff80004a54:	d1000401 	sub	x1, x0, #0x1
ffffffff80004a58:	f94013e0 	ldr	x0, [sp, #32]
ffffffff80004a5c:	eb00003f 	cmp	x1, x0
ffffffff80004a60:	540002a1 	b.ne	ffffffff80004ab4 <flanterm_putchar+0x51c>  // b.any
ffffffff80004a64:	f9400fe0 	ldr	x0, [sp, #24]
ffffffff80004a68:	f940b401 	ldr	x1, [x0, #360]
ffffffff80004a6c:	f9400fe0 	ldr	x0, [sp, #24]
ffffffff80004a70:	d63f0020 	blr	x1
ffffffff80004a74:	f9400fe0 	ldr	x0, [sp, #24]
ffffffff80004a78:	f9408003 	ldr	x3, [x0, #256]
ffffffff80004a7c:	f9400fe0 	ldr	x0, [sp, #24]
ffffffff80004a80:	f9405c00 	ldr	x0, [x0, #184]
ffffffff80004a84:	927c0000 	and	x0, x0, #0x10
ffffffff80004a88:	f100001f 	cmp	x0, #0x0
ffffffff80004a8c:	54000061 	b.ne	ffffffff80004a98 <flanterm_putchar+0x500>  // b.any
ffffffff80004a90:	f94017e0 	ldr	x0, [sp, #40]
ffffffff80004a94:	14000002 	b	ffffffff80004a9c <flanterm_putchar+0x504>
ffffffff80004a98:	d2800000 	mov	x0, #0x0                   	// #0
ffffffff80004a9c:	f94013e1 	ldr	x1, [sp, #32]
ffffffff80004aa0:	aa0103e2 	mov	x2, x1
ffffffff80004aa4:	aa0003e1 	mov	x1, x0
ffffffff80004aa8:	f9400fe0 	ldr	x0, [sp, #24]
ffffffff80004aac:	d63f0060 	blr	x3
ffffffff80004ab0:	1400007d 	b	ffffffff80004ca4 <flanterm_putchar+0x70c>
ffffffff80004ab4:	f9400fe0 	ldr	x0, [sp, #24]
ffffffff80004ab8:	f9408003 	ldr	x3, [x0, #256]
ffffffff80004abc:	f9400fe0 	ldr	x0, [sp, #24]
ffffffff80004ac0:	f9405c00 	ldr	x0, [x0, #184]
ffffffff80004ac4:	927c0000 	and	x0, x0, #0x10
ffffffff80004ac8:	f100001f 	cmp	x0, #0x0
ffffffff80004acc:	54000061 	b.ne	ffffffff80004ad8 <flanterm_putchar+0x540>  // b.any
ffffffff80004ad0:	f94017e0 	ldr	x0, [sp, #40]
ffffffff80004ad4:	14000002 	b	ffffffff80004adc <flanterm_putchar+0x544>
ffffffff80004ad8:	d2800000 	mov	x0, #0x0                   	// #0
ffffffff80004adc:	f94013e1 	ldr	x1, [sp, #32]
ffffffff80004ae0:	91000421 	add	x1, x1, #0x1
ffffffff80004ae4:	aa0103e2 	mov	x2, x1
ffffffff80004ae8:	aa0003e1 	mov	x1, x0
ffffffff80004aec:	f9400fe0 	ldr	x0, [sp, #24]
ffffffff80004af0:	d63f0060 	blr	x3
ffffffff80004af4:	1400006c 	b	ffffffff80004ca4 <flanterm_putchar+0x70c>
ffffffff80004af8:	f9400fe0 	ldr	x0, [sp, #24]
ffffffff80004afc:	f9408003 	ldr	x3, [x0, #256]
ffffffff80004b00:	f94017e0 	ldr	x0, [sp, #40]
ffffffff80004b04:	d1000400 	sub	x0, x0, #0x1
ffffffff80004b08:	f94013e1 	ldr	x1, [sp, #32]
ffffffff80004b0c:	aa0103e2 	mov	x2, x1
ffffffff80004b10:	aa0003e1 	mov	x1, x0
ffffffff80004b14:	f9400fe0 	ldr	x0, [sp, #24]
ffffffff80004b18:	d63f0060 	blr	x3
ffffffff80004b1c:	14000062 	b	ffffffff80004ca4 <flanterm_putchar+0x70c>
ffffffff80004b20:	f9400fe0 	ldr	x0, [sp, #24]
ffffffff80004b24:	f9408003 	ldr	x3, [x0, #256]
ffffffff80004b28:	f94013e0 	ldr	x0, [sp, #32]
ffffffff80004b2c:	aa0003e2 	mov	x2, x0
ffffffff80004b30:	d2800001 	mov	x1, #0x0                   	// #0
ffffffff80004b34:	f9400fe0 	ldr	x0, [sp, #24]
ffffffff80004b38:	d63f0060 	blr	x3
ffffffff80004b3c:	1400005a 	b	ffffffff80004ca4 <flanterm_putchar+0x70c>
ffffffff80004b40:	f9400fe0 	ldr	x0, [sp, #24]
ffffffff80004b44:	f940d400 	ldr	x0, [x0, #424]
ffffffff80004b48:	f100001f 	cmp	x0, #0x0
ffffffff80004b4c:	54000a60 	b.eq	ffffffff80004c98 <flanterm_putchar+0x700>  // b.none
ffffffff80004b50:	f9400fe0 	ldr	x0, [sp, #24]
ffffffff80004b54:	f940d405 	ldr	x5, [x0, #424]
ffffffff80004b58:	d2800004 	mov	x4, #0x0                   	// #0
ffffffff80004b5c:	d2800003 	mov	x3, #0x0                   	// #0
ffffffff80004b60:	d2800002 	mov	x2, #0x0                   	// #0
ffffffff80004b64:	d2800281 	mov	x1, #0x14                  	// #20
ffffffff80004b68:	f9400fe0 	ldr	x0, [sp, #24]
ffffffff80004b6c:	d63f00a0 	blr	x5
ffffffff80004b70:	1400004a 	b	ffffffff80004c98 <flanterm_putchar+0x700>
ffffffff80004b74:	f9400fe0 	ldr	x0, [sp, #24]
ffffffff80004b78:	d2800021 	mov	x1, #0x1                   	// #1
ffffffff80004b7c:	f9001801 	str	x1, [x0, #48]
ffffffff80004b80:	14000049 	b	ffffffff80004ca4 <flanterm_putchar+0x70c>
ffffffff80004b84:	f9400fe0 	ldr	x0, [sp, #24]
ffffffff80004b88:	f900181f 	str	xzr, [x0, #48]
ffffffff80004b8c:	14000046 	b	ffffffff80004ca4 <flanterm_putchar+0x70c>
ffffffff80004b90:	f9400fe0 	ldr	x0, [sp, #24]
ffffffff80004b94:	39405800 	ldrb	w0, [x0, #22]
ffffffff80004b98:	12000000 	and	w0, w0, #0x1
ffffffff80004b9c:	7100001f 	cmp	w0, #0x0
ffffffff80004ba0:	54000340 	b.eq	ffffffff80004c08 <flanterm_putchar+0x670>  // b.none
ffffffff80004ba4:	f9400fe0 	ldr	x0, [sp, #24]
ffffffff80004ba8:	f9407400 	ldr	x0, [x0, #232]
ffffffff80004bac:	d1000400 	sub	x0, x0, #0x1
ffffffff80004bb0:	f90023e0 	str	x0, [sp, #64]
ffffffff80004bb4:	f9400fe0 	ldr	x0, [sp, #24]
ffffffff80004bb8:	f940b005 	ldr	x5, [x0, #352]
ffffffff80004bbc:	f94023e0 	ldr	x0, [sp, #64]
ffffffff80004bc0:	91000400 	add	x0, x0, #0x1
ffffffff80004bc4:	f94013e1 	ldr	x1, [sp, #32]
ffffffff80004bc8:	f94013e2 	ldr	x2, [sp, #32]
ffffffff80004bcc:	aa0203e4 	mov	x4, x2
ffffffff80004bd0:	f94023e3 	ldr	x3, [sp, #64]
ffffffff80004bd4:	aa0103e2 	mov	x2, x1
ffffffff80004bd8:	aa0003e1 	mov	x1, x0
ffffffff80004bdc:	f9400fe0 	ldr	x0, [sp, #24]
ffffffff80004be0:	d63f00a0 	blr	x5
ffffffff80004be4:	f94017e0 	ldr	x0, [sp, #40]
ffffffff80004be8:	f94023e1 	ldr	x1, [sp, #64]
ffffffff80004bec:	eb00003f 	cmp	x1, x0
ffffffff80004bf0:	540000a0 	b.eq	ffffffff80004c04 <flanterm_putchar+0x66c>  // b.none
ffffffff80004bf4:	f94023e0 	ldr	x0, [sp, #64]
ffffffff80004bf8:	d1000400 	sub	x0, x0, #0x1
ffffffff80004bfc:	f90023e0 	str	x0, [sp, #64]
ffffffff80004c00:	17ffffed 	b	ffffffff80004bb4 <flanterm_putchar+0x61c>
ffffffff80004c04:	d503201f 	nop
ffffffff80004c08:	f9400fe0 	ldr	x0, [sp, #24]
ffffffff80004c0c:	f9401800 	ldr	x0, [x0, #48]
ffffffff80004c10:	f9400fe1 	ldr	x1, [sp, #24]
ffffffff80004c14:	8b000020 	add	x0, x1, x0
ffffffff80004c18:	3940a400 	ldrb	w0, [x0, #41]
ffffffff80004c1c:	7100001f 	cmp	w0, #0x0
ffffffff80004c20:	54000160 	b.eq	ffffffff80004c4c <flanterm_putchar+0x6b4>  // b.none
ffffffff80004c24:	7100041f 	cmp	w0, #0x1
ffffffff80004c28:	54000141 	b.ne	ffffffff80004c50 <flanterm_putchar+0x6b8>  // b.any
ffffffff80004c2c:	39405fe1 	ldrb	w1, [sp, #23]
ffffffff80004c30:	f9400fe0 	ldr	x0, [sp, #24]
ffffffff80004c34:	97fffa8b 	bl	ffffffff80003660 <dec_special_print>
ffffffff80004c38:	12001c00 	and	w0, w0, #0xff
ffffffff80004c3c:	12000000 	and	w0, w0, #0x1
ffffffff80004c40:	7100001f 	cmp	w0, #0x0
ffffffff80004c44:	540002e1 	b.ne	ffffffff80004ca0 <flanterm_putchar+0x708>  // b.any
ffffffff80004c48:	14000002 	b	ffffffff80004c50 <flanterm_putchar+0x6b8>
ffffffff80004c4c:	d503201f 	nop
ffffffff80004c50:	39405fe0 	ldrb	w0, [sp, #23]
ffffffff80004c54:	71007c1f 	cmp	w0, #0x1f
ffffffff80004c58:	54000269 	b.ls	ffffffff80004ca4 <flanterm_putchar+0x70c>  // b.plast
ffffffff80004c5c:	39405fe0 	ldrb	w0, [sp, #23]
ffffffff80004c60:	7101f81f 	cmp	w0, #0x7e
ffffffff80004c64:	54000208 	b.hi	ffffffff80004ca4 <flanterm_putchar+0x70c>  // b.pmore
ffffffff80004c68:	f9400fe0 	ldr	x0, [sp, #24]
ffffffff80004c6c:	f9407802 	ldr	x2, [x0, #240]
ffffffff80004c70:	39405fe1 	ldrb	w1, [sp, #23]
ffffffff80004c74:	f9400fe0 	ldr	x0, [sp, #24]
ffffffff80004c78:	d63f0040 	blr	x2
ffffffff80004c7c:	1400000a 	b	ffffffff80004ca4 <flanterm_putchar+0x70c>
ffffffff80004c80:	d503201f 	nop
ffffffff80004c84:	14000008 	b	ffffffff80004ca4 <flanterm_putchar+0x70c>
ffffffff80004c88:	d503201f 	nop
ffffffff80004c8c:	14000006 	b	ffffffff80004ca4 <flanterm_putchar+0x70c>
ffffffff80004c90:	d503201f 	nop
ffffffff80004c94:	14000004 	b	ffffffff80004ca4 <flanterm_putchar+0x70c>
ffffffff80004c98:	d503201f 	nop
ffffffff80004c9c:	14000002 	b	ffffffff80004ca4 <flanterm_putchar+0x70c>
ffffffff80004ca0:	d503201f 	nop
ffffffff80004ca4:	a8c57bfd 	ldp	x29, x30, [sp], #80
ffffffff80004ca8:	d65f03c0 	ret

ffffffff80004cac <bump_alloc>:
ffffffff80004cac:	d10083ff 	sub	sp, sp, #0x20
ffffffff80004cb0:	f90007e0 	str	x0, [sp, #8]
ffffffff80004cb4:	d0020120 	adrp	x0, ffffffff8402a000 <bump_alloc_pool+0x3fff898>
ffffffff80004cb8:	911da000 	add	x0, x0, #0x768
ffffffff80004cbc:	f9400000 	ldr	x0, [x0]
ffffffff80004cc0:	f94007e1 	ldr	x1, [sp, #8]
ffffffff80004cc4:	8b000020 	add	x0, x1, x0
ffffffff80004cc8:	f9000fe0 	str	x0, [sp, #24]
ffffffff80004ccc:	f9400fe1 	ldr	x1, [sp, #24]
ffffffff80004cd0:	d2a08000 	mov	x0, #0x4000000             	// #67108864
ffffffff80004cd4:	eb00003f 	cmp	x1, x0
ffffffff80004cd8:	54000069 	b.ls	ffffffff80004ce4 <bump_alloc+0x38>  // b.plast
ffffffff80004cdc:	d2800000 	mov	x0, #0x0                   	// #0
ffffffff80004ce0:	1400000d 	b	ffffffff80004d14 <bump_alloc+0x68>
ffffffff80004ce4:	d0020120 	adrp	x0, ffffffff8402a000 <bump_alloc_pool+0x3fff898>
ffffffff80004ce8:	911da000 	add	x0, x0, #0x768
ffffffff80004cec:	f9400001 	ldr	x1, [x0]
ffffffff80004cf0:	d0000120 	adrp	x0, ffffffff8002a000 <builtin_font+0x109c0>
ffffffff80004cf4:	911da000 	add	x0, x0, #0x768
ffffffff80004cf8:	8b000020 	add	x0, x1, x0
ffffffff80004cfc:	f9000be0 	str	x0, [sp, #16]
ffffffff80004d00:	d0020120 	adrp	x0, ffffffff8402a000 <bump_alloc_pool+0x3fff898>
ffffffff80004d04:	911da000 	add	x0, x0, #0x768
ffffffff80004d08:	f9400fe1 	ldr	x1, [sp, #24]
ffffffff80004d0c:	f9000001 	str	x1, [x0]
ffffffff80004d10:	f9400be0 	ldr	x0, [sp, #16]
ffffffff80004d14:	910083ff 	add	sp, sp, #0x20
ffffffff80004d18:	d65f03c0 	ret

ffffffff80004d1c <flanterm_fb_save_state>:
ffffffff80004d1c:	d10083ff 	sub	sp, sp, #0x20
ffffffff80004d20:	f90007e0 	str	x0, [sp, #8]
ffffffff80004d24:	f94007e0 	ldr	x0, [sp, #8]
ffffffff80004d28:	f9000fe0 	str	x0, [sp, #24]
ffffffff80004d2c:	f9400fe0 	ldr	x0, [sp, #24]
ffffffff80004d30:	b942d001 	ldr	w1, [x0, #720]
ffffffff80004d34:	f9400fe0 	ldr	x0, [sp, #24]
ffffffff80004d38:	b902e801 	str	w1, [x0, #744]
ffffffff80004d3c:	f9400fe0 	ldr	x0, [sp, #24]
ffffffff80004d40:	b942d401 	ldr	w1, [x0, #724]
ffffffff80004d44:	f9400fe0 	ldr	x0, [sp, #24]
ffffffff80004d48:	b902ec01 	str	w1, [x0, #748]
ffffffff80004d4c:	f9400fe0 	ldr	x0, [sp, #24]
ffffffff80004d50:	f9416c01 	ldr	x1, [x0, #728]
ffffffff80004d54:	f9400fe0 	ldr	x0, [sp, #24]
ffffffff80004d58:	f9017801 	str	x1, [x0, #752]
ffffffff80004d5c:	f9400fe0 	ldr	x0, [sp, #24]
ffffffff80004d60:	f9417001 	ldr	x1, [x0, #736]
ffffffff80004d64:	f9400fe0 	ldr	x0, [sp, #24]
ffffffff80004d68:	f9017c01 	str	x1, [x0, #760]
ffffffff80004d6c:	d503201f 	nop
ffffffff80004d70:	910083ff 	add	sp, sp, #0x20
ffffffff80004d74:	d65f03c0 	ret

ffffffff80004d78 <flanterm_fb_restore_state>:
ffffffff80004d78:	d10083ff 	sub	sp, sp, #0x20
ffffffff80004d7c:	f90007e0 	str	x0, [sp, #8]
ffffffff80004d80:	f94007e0 	ldr	x0, [sp, #8]
ffffffff80004d84:	f9000fe0 	str	x0, [sp, #24]
ffffffff80004d88:	f9400fe0 	ldr	x0, [sp, #24]
ffffffff80004d8c:	b942e801 	ldr	w1, [x0, #744]
ffffffff80004d90:	f9400fe0 	ldr	x0, [sp, #24]
ffffffff80004d94:	b902d001 	str	w1, [x0, #720]
ffffffff80004d98:	f9400fe0 	ldr	x0, [sp, #24]
ffffffff80004d9c:	b942ec01 	ldr	w1, [x0, #748]
ffffffff80004da0:	f9400fe0 	ldr	x0, [sp, #24]
ffffffff80004da4:	b902d401 	str	w1, [x0, #724]
ffffffff80004da8:	f9400fe0 	ldr	x0, [sp, #24]
ffffffff80004dac:	f9417801 	ldr	x1, [x0, #752]
ffffffff80004db0:	f9400fe0 	ldr	x0, [sp, #24]
ffffffff80004db4:	f9016c01 	str	x1, [x0, #728]
ffffffff80004db8:	f9400fe0 	ldr	x0, [sp, #24]
ffffffff80004dbc:	f9417c01 	ldr	x1, [x0, #760]
ffffffff80004dc0:	f9400fe0 	ldr	x0, [sp, #24]
ffffffff80004dc4:	f9017001 	str	x1, [x0, #736]
ffffffff80004dc8:	d503201f 	nop
ffffffff80004dcc:	910083ff 	add	sp, sp, #0x20
ffffffff80004dd0:	d65f03c0 	ret

ffffffff80004dd4 <flanterm_fb_swap_palette>:
ffffffff80004dd4:	d10083ff 	sub	sp, sp, #0x20
ffffffff80004dd8:	f90007e0 	str	x0, [sp, #8]
ffffffff80004ddc:	f94007e0 	ldr	x0, [sp, #8]
ffffffff80004de0:	f9000fe0 	str	x0, [sp, #24]
ffffffff80004de4:	f9400fe0 	ldr	x0, [sp, #24]
ffffffff80004de8:	b942d400 	ldr	w0, [x0, #724]
ffffffff80004dec:	b90017e0 	str	w0, [sp, #20]
ffffffff80004df0:	f9400fe0 	ldr	x0, [sp, #24]
ffffffff80004df4:	b942d001 	ldr	w1, [x0, #720]
ffffffff80004df8:	f9400fe0 	ldr	x0, [sp, #24]
ffffffff80004dfc:	b902d401 	str	w1, [x0, #724]
ffffffff80004e00:	f9400fe0 	ldr	x0, [sp, #24]
ffffffff80004e04:	b94017e1 	ldr	w1, [sp, #20]
ffffffff80004e08:	b902d001 	str	w1, [x0, #720]
ffffffff80004e0c:	d503201f 	nop
ffffffff80004e10:	910083ff 	add	sp, sp, #0x20
ffffffff80004e14:	d65f03c0 	ret

ffffffff80004e18 <plot_char>:
ffffffff80004e18:	d10203ff 	sub	sp, sp, #0x80
ffffffff80004e1c:	f9000fe0 	str	x0, [sp, #24]
ffffffff80004e20:	f9000be1 	str	x1, [sp, #16]
ffffffff80004e24:	f90007e2 	str	x2, [sp, #8]
ffffffff80004e28:	f90003e3 	str	x3, [sp]
ffffffff80004e2c:	f9400fe0 	ldr	x0, [sp, #24]
ffffffff80004e30:	f90033e0 	str	x0, [sp, #96]
ffffffff80004e34:	f9400fe0 	ldr	x0, [sp, #24]
ffffffff80004e38:	f9407400 	ldr	x0, [x0, #232]
ffffffff80004e3c:	f94007e1 	ldr	x1, [sp, #8]
ffffffff80004e40:	eb00003f 	cmp	x1, x0
ffffffff80004e44:	54001322 	b.cs	ffffffff800050a8 <plot_char+0x290>  // b.hs, b.nlast
ffffffff80004e48:	f9400fe0 	ldr	x0, [sp, #24]
ffffffff80004e4c:	f9407000 	ldr	x0, [x0, #224]
ffffffff80004e50:	f94003e1 	ldr	x1, [sp]
ffffffff80004e54:	eb00003f 	cmp	x1, x0
ffffffff80004e58:	54001282 	b.cs	ffffffff800050a8 <plot_char+0x290>  // b.hs, b.nlast
ffffffff80004e5c:	f94033e0 	ldr	x0, [sp, #96]
ffffffff80004e60:	f940f001 	ldr	x1, [x0, #480]
ffffffff80004e64:	f94033e0 	ldr	x0, [sp, #96]
ffffffff80004e68:	f940e002 	ldr	x2, [x0, #448]
ffffffff80004e6c:	f94007e0 	ldr	x0, [sp, #8]
ffffffff80004e70:	9b007c40 	mul	x0, x2, x0
ffffffff80004e74:	8b000020 	add	x0, x1, x0
ffffffff80004e78:	f90007e0 	str	x0, [sp, #8]
ffffffff80004e7c:	f94033e0 	ldr	x0, [sp, #96]
ffffffff80004e80:	f940f401 	ldr	x1, [x0, #488]
ffffffff80004e84:	f94033e0 	ldr	x0, [sp, #96]
ffffffff80004e88:	f940e402 	ldr	x2, [x0, #456]
ffffffff80004e8c:	f94003e0 	ldr	x0, [sp]
ffffffff80004e90:	9b007c40 	mul	x0, x2, x0
ffffffff80004e94:	8b000020 	add	x0, x1, x0
ffffffff80004e98:	f90003e0 	str	x0, [sp]
ffffffff80004e9c:	f94033e0 	ldr	x0, [sp, #96]
ffffffff80004ea0:	f9411801 	ldr	x1, [x0, #560]
ffffffff80004ea4:	f9400be0 	ldr	x0, [sp, #16]
ffffffff80004ea8:	b9400000 	ldr	w0, [x0]
ffffffff80004eac:	2a0003e2 	mov	w2, w0
ffffffff80004eb0:	f94033e0 	ldr	x0, [sp, #96]
ffffffff80004eb4:	f940dc00 	ldr	x0, [x0, #440]
ffffffff80004eb8:	9b007c42 	mul	x2, x2, x0
ffffffff80004ebc:	f94033e0 	ldr	x0, [sp, #96]
ffffffff80004ec0:	f940d800 	ldr	x0, [x0, #432]
ffffffff80004ec4:	9b007c40 	mul	x0, x2, x0
ffffffff80004ec8:	8b000020 	add	x0, x1, x0
ffffffff80004ecc:	f9002fe0 	str	x0, [sp, #88]
ffffffff80004ed0:	f9003fff 	str	xzr, [sp, #120]
ffffffff80004ed4:	1400006f 	b	ffffffff80005090 <plot_char+0x278>
ffffffff80004ed8:	f94033e0 	ldr	x0, [sp, #96]
ffffffff80004edc:	f940ec00 	ldr	x0, [x0, #472]
ffffffff80004ee0:	f9403fe1 	ldr	x1, [sp, #120]
ffffffff80004ee4:	9ac00820 	udiv	x0, x1, x0
ffffffff80004ee8:	39015fe0 	strb	w0, [sp, #87]
ffffffff80004eec:	f94033e0 	ldr	x0, [sp, #96]
ffffffff80004ef0:	f940f801 	ldr	x1, [x0, #496]
ffffffff80004ef4:	f94003e2 	ldr	x2, [sp]
ffffffff80004ef8:	f9403fe0 	ldr	x0, [sp, #120]
ffffffff80004efc:	8b000042 	add	x2, x2, x0
ffffffff80004f00:	f94033e0 	ldr	x0, [sp, #96]
ffffffff80004f04:	f940fc00 	ldr	x0, [x0, #504]
ffffffff80004f08:	d342fc00 	lsr	x0, x0, #2
ffffffff80004f0c:	9b007c42 	mul	x2, x2, x0
ffffffff80004f10:	f94007e0 	ldr	x0, [sp, #8]
ffffffff80004f14:	8b000040 	add	x0, x2, x0
ffffffff80004f18:	d37ef400 	lsl	x0, x0, #2
ffffffff80004f1c:	8b000020 	add	x0, x1, x0
ffffffff80004f20:	f90027e0 	str	x0, [sp, #72]
ffffffff80004f24:	f94033e0 	ldr	x0, [sp, #96]
ffffffff80004f28:	f9414801 	ldr	x1, [x0, #656]
ffffffff80004f2c:	f94003e2 	ldr	x2, [sp]
ffffffff80004f30:	f9403fe0 	ldr	x0, [sp, #120]
ffffffff80004f34:	8b000042 	add	x2, x2, x0
ffffffff80004f38:	f94033e0 	ldr	x0, [sp, #96]
ffffffff80004f3c:	f9410000 	ldr	x0, [x0, #512]
ffffffff80004f40:	9b007c42 	mul	x2, x2, x0
ffffffff80004f44:	f94007e0 	ldr	x0, [sp, #8]
ffffffff80004f48:	8b000040 	add	x0, x2, x0
ffffffff80004f4c:	d37ef400 	lsl	x0, x0, #2
ffffffff80004f50:	8b000020 	add	x0, x1, x0
ffffffff80004f54:	f90023e0 	str	x0, [sp, #64]
ffffffff80004f58:	f9003bff 	str	xzr, [sp, #112]
ffffffff80004f5c:	14000045 	b	ffffffff80005070 <plot_char+0x258>
ffffffff80004f60:	39415fe1 	ldrb	w1, [sp, #87]
ffffffff80004f64:	f94033e0 	ldr	x0, [sp, #96]
ffffffff80004f68:	f940d800 	ldr	x0, [x0, #432]
ffffffff80004f6c:	9b007c21 	mul	x1, x1, x0
ffffffff80004f70:	f9403be0 	ldr	x0, [sp, #112]
ffffffff80004f74:	8b000020 	add	x0, x1, x0
ffffffff80004f78:	f9402fe1 	ldr	x1, [sp, #88]
ffffffff80004f7c:	8b000020 	add	x0, x1, x0
ffffffff80004f80:	39400000 	ldrb	w0, [x0]
ffffffff80004f84:	3900ffe0 	strb	w0, [sp, #63]
ffffffff80004f88:	f90037ff 	str	xzr, [sp, #104]
ffffffff80004f8c:	14000031 	b	ffffffff80005050 <plot_char+0x238>
ffffffff80004f90:	f94033e0 	ldr	x0, [sp, #96]
ffffffff80004f94:	f940e801 	ldr	x1, [x0, #464]
ffffffff80004f98:	f9403be0 	ldr	x0, [sp, #112]
ffffffff80004f9c:	9b007c20 	mul	x0, x1, x0
ffffffff80004fa0:	f94037e1 	ldr	x1, [sp, #104]
ffffffff80004fa4:	8b000020 	add	x0, x1, x0
ffffffff80004fa8:	f9001be0 	str	x0, [sp, #48]
ffffffff80004fac:	f9400be0 	ldr	x0, [sp, #16]
ffffffff80004fb0:	b9400800 	ldr	w0, [x0, #8]
ffffffff80004fb4:	3100041f 	cmn	w0, #0x1
ffffffff80004fb8:	540000e1 	b.ne	ffffffff80004fd4 <plot_char+0x1bc>  // b.any
ffffffff80004fbc:	f9401be0 	ldr	x0, [sp, #48]
ffffffff80004fc0:	d37ef400 	lsl	x0, x0, #2
ffffffff80004fc4:	f94023e1 	ldr	x1, [sp, #64]
ffffffff80004fc8:	8b000020 	add	x0, x1, x0
ffffffff80004fcc:	b9400000 	ldr	w0, [x0]
ffffffff80004fd0:	14000003 	b	ffffffff80004fdc <plot_char+0x1c4>
ffffffff80004fd4:	f9400be0 	ldr	x0, [sp, #16]
ffffffff80004fd8:	b9400800 	ldr	w0, [x0, #8]
ffffffff80004fdc:	b9002fe0 	str	w0, [sp, #44]
ffffffff80004fe0:	f9400be0 	ldr	x0, [sp, #16]
ffffffff80004fe4:	b9400400 	ldr	w0, [x0, #4]
ffffffff80004fe8:	3100041f 	cmn	w0, #0x1
ffffffff80004fec:	540000e1 	b.ne	ffffffff80005008 <plot_char+0x1f0>  // b.any
ffffffff80004ff0:	f9401be0 	ldr	x0, [sp, #48]
ffffffff80004ff4:	d37ef400 	lsl	x0, x0, #2
ffffffff80004ff8:	f94023e1 	ldr	x1, [sp, #64]
ffffffff80004ffc:	8b000020 	add	x0, x1, x0
ffffffff80005000:	b9400000 	ldr	w0, [x0]
ffffffff80005004:	14000003 	b	ffffffff80005010 <plot_char+0x1f8>
ffffffff80005008:	f9400be0 	ldr	x0, [sp, #16]
ffffffff8000500c:	b9400400 	ldr	w0, [x0, #4]
ffffffff80005010:	b9002be0 	str	w0, [sp, #40]
ffffffff80005014:	3940ffe0 	ldrb	w0, [sp, #63]
ffffffff80005018:	12000000 	and	w0, w0, #0x1
ffffffff8000501c:	7100001f 	cmp	w0, #0x0
ffffffff80005020:	54000060 	b.eq	ffffffff8000502c <plot_char+0x214>  // b.none
ffffffff80005024:	b9402be0 	ldr	w0, [sp, #40]
ffffffff80005028:	14000002 	b	ffffffff80005030 <plot_char+0x218>
ffffffff8000502c:	b9402fe0 	ldr	w0, [sp, #44]
ffffffff80005030:	f9401be1 	ldr	x1, [sp, #48]
ffffffff80005034:	d37ef421 	lsl	x1, x1, #2
ffffffff80005038:	f94027e2 	ldr	x2, [sp, #72]
ffffffff8000503c:	8b010041 	add	x1, x2, x1
ffffffff80005040:	b9000020 	str	w0, [x1]
ffffffff80005044:	f94037e0 	ldr	x0, [sp, #104]
ffffffff80005048:	91000400 	add	x0, x0, #0x1
ffffffff8000504c:	f90037e0 	str	x0, [sp, #104]
ffffffff80005050:	f94033e0 	ldr	x0, [sp, #96]
ffffffff80005054:	f940e800 	ldr	x0, [x0, #464]
ffffffff80005058:	f94037e1 	ldr	x1, [sp, #104]
ffffffff8000505c:	eb00003f 	cmp	x1, x0
ffffffff80005060:	54fff983 	b.cc	ffffffff80004f90 <plot_char+0x178>  // b.lo, b.ul, b.last
ffffffff80005064:	f9403be0 	ldr	x0, [sp, #112]
ffffffff80005068:	91000400 	add	x0, x0, #0x1
ffffffff8000506c:	f9003be0 	str	x0, [sp, #112]
ffffffff80005070:	f94033e0 	ldr	x0, [sp, #96]
ffffffff80005074:	f940d800 	ldr	x0, [x0, #432]
ffffffff80005078:	f9403be1 	ldr	x1, [sp, #112]
ffffffff8000507c:	eb00003f 	cmp	x1, x0
ffffffff80005080:	54fff703 	b.cc	ffffffff80004f60 <plot_char+0x148>  // b.lo, b.ul, b.last
ffffffff80005084:	f9403fe0 	ldr	x0, [sp, #120]
ffffffff80005088:	91000400 	add	x0, x0, #0x1
ffffffff8000508c:	f9003fe0 	str	x0, [sp, #120]
ffffffff80005090:	f94033e0 	ldr	x0, [sp, #96]
ffffffff80005094:	f940e400 	ldr	x0, [x0, #456]
ffffffff80005098:	f9403fe1 	ldr	x1, [sp, #120]
ffffffff8000509c:	eb00003f 	cmp	x1, x0
ffffffff800050a0:	54fff1c3 	b.cc	ffffffff80004ed8 <plot_char+0xc0>  // b.lo, b.ul, b.last
ffffffff800050a4:	14000002 	b	ffffffff800050ac <plot_char+0x294>
ffffffff800050a8:	d503201f 	nop
ffffffff800050ac:	910203ff 	add	sp, sp, #0x80
ffffffff800050b0:	d65f03c0 	ret

ffffffff800050b4 <plot_char_fast>:
ffffffff800050b4:	d10243ff 	sub	sp, sp, #0x90
ffffffff800050b8:	f90017e0 	str	x0, [sp, #40]
ffffffff800050bc:	f90013e1 	str	x1, [sp, #32]
ffffffff800050c0:	f9000fe2 	str	x2, [sp, #24]
ffffffff800050c4:	f9000be3 	str	x3, [sp, #16]
ffffffff800050c8:	f90007e4 	str	x4, [sp, #8]
ffffffff800050cc:	f94017e0 	ldr	x0, [sp, #40]
ffffffff800050d0:	f9003be0 	str	x0, [sp, #112]
ffffffff800050d4:	f94017e0 	ldr	x0, [sp, #40]
ffffffff800050d8:	f9407400 	ldr	x0, [x0, #232]
ffffffff800050dc:	f9400be1 	ldr	x1, [sp, #16]
ffffffff800050e0:	eb00003f 	cmp	x1, x0
ffffffff800050e4:	540016c2 	b.cs	ffffffff800053bc <plot_char_fast+0x308>  // b.hs, b.nlast
ffffffff800050e8:	f94017e0 	ldr	x0, [sp, #40]
ffffffff800050ec:	f9407000 	ldr	x0, [x0, #224]
ffffffff800050f0:	f94007e1 	ldr	x1, [sp, #8]
ffffffff800050f4:	eb00003f 	cmp	x1, x0
ffffffff800050f8:	54001622 	b.cs	ffffffff800053bc <plot_char_fast+0x308>  // b.hs, b.nlast
ffffffff800050fc:	f9403be0 	ldr	x0, [sp, #112]
ffffffff80005100:	f940f001 	ldr	x1, [x0, #480]
ffffffff80005104:	f9403be0 	ldr	x0, [sp, #112]
ffffffff80005108:	f940e002 	ldr	x2, [x0, #448]
ffffffff8000510c:	f9400be0 	ldr	x0, [sp, #16]
ffffffff80005110:	9b007c40 	mul	x0, x2, x0
ffffffff80005114:	8b000020 	add	x0, x1, x0
ffffffff80005118:	f9000be0 	str	x0, [sp, #16]
ffffffff8000511c:	f9403be0 	ldr	x0, [sp, #112]
ffffffff80005120:	f940f401 	ldr	x1, [x0, #488]
ffffffff80005124:	f9403be0 	ldr	x0, [sp, #112]
ffffffff80005128:	f940e402 	ldr	x2, [x0, #456]
ffffffff8000512c:	f94007e0 	ldr	x0, [sp, #8]
ffffffff80005130:	9b007c40 	mul	x0, x2, x0
ffffffff80005134:	8b000020 	add	x0, x1, x0
ffffffff80005138:	f90007e0 	str	x0, [sp, #8]
ffffffff8000513c:	f9403be0 	ldr	x0, [sp, #112]
ffffffff80005140:	f9411801 	ldr	x1, [x0, #560]
ffffffff80005144:	f9400fe0 	ldr	x0, [sp, #24]
ffffffff80005148:	b9400000 	ldr	w0, [x0]
ffffffff8000514c:	2a0003e2 	mov	w2, w0
ffffffff80005150:	f9403be0 	ldr	x0, [sp, #112]
ffffffff80005154:	f940dc00 	ldr	x0, [x0, #440]
ffffffff80005158:	9b007c42 	mul	x2, x2, x0
ffffffff8000515c:	f9403be0 	ldr	x0, [sp, #112]
ffffffff80005160:	f940d800 	ldr	x0, [x0, #432]
ffffffff80005164:	9b007c40 	mul	x0, x2, x0
ffffffff80005168:	8b000020 	add	x0, x1, x0
ffffffff8000516c:	f90037e0 	str	x0, [sp, #104]
ffffffff80005170:	f9403be0 	ldr	x0, [sp, #112]
ffffffff80005174:	f9411801 	ldr	x1, [x0, #560]
ffffffff80005178:	f94013e0 	ldr	x0, [sp, #32]
ffffffff8000517c:	b9400000 	ldr	w0, [x0]
ffffffff80005180:	2a0003e2 	mov	w2, w0
ffffffff80005184:	f9403be0 	ldr	x0, [sp, #112]
ffffffff80005188:	f940dc00 	ldr	x0, [x0, #440]
ffffffff8000518c:	9b007c42 	mul	x2, x2, x0
ffffffff80005190:	f9403be0 	ldr	x0, [sp, #112]
ffffffff80005194:	f940d800 	ldr	x0, [x0, #432]
ffffffff80005198:	9b007c40 	mul	x0, x2, x0
ffffffff8000519c:	8b000020 	add	x0, x1, x0
ffffffff800051a0:	f90033e0 	str	x0, [sp, #96]
ffffffff800051a4:	f90047ff 	str	xzr, [sp, #136]
ffffffff800051a8:	1400007f 	b	ffffffff800053a4 <plot_char_fast+0x2f0>
ffffffff800051ac:	f9403be0 	ldr	x0, [sp, #112]
ffffffff800051b0:	f940ec00 	ldr	x0, [x0, #472]
ffffffff800051b4:	f94047e1 	ldr	x1, [sp, #136]
ffffffff800051b8:	9ac00820 	udiv	x0, x1, x0
ffffffff800051bc:	39017fe0 	strb	w0, [sp, #95]
ffffffff800051c0:	f9403be0 	ldr	x0, [sp, #112]
ffffffff800051c4:	f940f801 	ldr	x1, [x0, #496]
ffffffff800051c8:	f94007e2 	ldr	x2, [sp, #8]
ffffffff800051cc:	f94047e0 	ldr	x0, [sp, #136]
ffffffff800051d0:	8b000042 	add	x2, x2, x0
ffffffff800051d4:	f9403be0 	ldr	x0, [sp, #112]
ffffffff800051d8:	f940fc00 	ldr	x0, [x0, #504]
ffffffff800051dc:	d342fc00 	lsr	x0, x0, #2
ffffffff800051e0:	9b007c42 	mul	x2, x2, x0
ffffffff800051e4:	f9400be0 	ldr	x0, [sp, #16]
ffffffff800051e8:	8b000040 	add	x0, x2, x0
ffffffff800051ec:	d37ef400 	lsl	x0, x0, #2
ffffffff800051f0:	8b000020 	add	x0, x1, x0
ffffffff800051f4:	f9002be0 	str	x0, [sp, #80]
ffffffff800051f8:	f9403be0 	ldr	x0, [sp, #112]
ffffffff800051fc:	f9414801 	ldr	x1, [x0, #656]
ffffffff80005200:	f94007e2 	ldr	x2, [sp, #8]
ffffffff80005204:	f94047e0 	ldr	x0, [sp, #136]
ffffffff80005208:	8b000042 	add	x2, x2, x0
ffffffff8000520c:	f9403be0 	ldr	x0, [sp, #112]
ffffffff80005210:	f9410000 	ldr	x0, [x0, #512]
ffffffff80005214:	9b007c42 	mul	x2, x2, x0
ffffffff80005218:	f9400be0 	ldr	x0, [sp, #16]
ffffffff8000521c:	8b000040 	add	x0, x2, x0
ffffffff80005220:	d37ef400 	lsl	x0, x0, #2
ffffffff80005224:	8b000020 	add	x0, x1, x0
ffffffff80005228:	f90027e0 	str	x0, [sp, #72]
ffffffff8000522c:	f90043ff 	str	xzr, [sp, #128]
ffffffff80005230:	14000055 	b	ffffffff80005384 <plot_char_fast+0x2d0>
ffffffff80005234:	39417fe1 	ldrb	w1, [sp, #95]
ffffffff80005238:	f9403be0 	ldr	x0, [sp, #112]
ffffffff8000523c:	f940d800 	ldr	x0, [x0, #432]
ffffffff80005240:	9b007c21 	mul	x1, x1, x0
ffffffff80005244:	f94043e0 	ldr	x0, [sp, #128]
ffffffff80005248:	8b000020 	add	x0, x1, x0
ffffffff8000524c:	f94033e1 	ldr	x1, [sp, #96]
ffffffff80005250:	8b000020 	add	x0, x1, x0
ffffffff80005254:	39400000 	ldrb	w0, [x0]
ffffffff80005258:	39011fe0 	strb	w0, [sp, #71]
ffffffff8000525c:	39417fe1 	ldrb	w1, [sp, #95]
ffffffff80005260:	f9403be0 	ldr	x0, [sp, #112]
ffffffff80005264:	f940d800 	ldr	x0, [x0, #432]
ffffffff80005268:	9b007c21 	mul	x1, x1, x0
ffffffff8000526c:	f94043e0 	ldr	x0, [sp, #128]
ffffffff80005270:	8b000020 	add	x0, x1, x0
ffffffff80005274:	f94037e1 	ldr	x1, [sp, #104]
ffffffff80005278:	8b000020 	add	x0, x1, x0
ffffffff8000527c:	39400000 	ldrb	w0, [x0]
ffffffff80005280:	39011be0 	strb	w0, [sp, #70]
ffffffff80005284:	39411fe1 	ldrb	w1, [sp, #71]
ffffffff80005288:	39411be0 	ldrb	w0, [sp, #70]
ffffffff8000528c:	6b00003f 	cmp	w1, w0
ffffffff80005290:	54000720 	b.eq	ffffffff80005374 <plot_char_fast+0x2c0>  // b.none
ffffffff80005294:	f9003fff 	str	xzr, [sp, #120]
ffffffff80005298:	14000031 	b	ffffffff8000535c <plot_char_fast+0x2a8>
ffffffff8000529c:	f9403be0 	ldr	x0, [sp, #112]
ffffffff800052a0:	f940e801 	ldr	x1, [x0, #464]
ffffffff800052a4:	f94043e0 	ldr	x0, [sp, #128]
ffffffff800052a8:	9b007c20 	mul	x0, x1, x0
ffffffff800052ac:	f9403fe1 	ldr	x1, [sp, #120]
ffffffff800052b0:	8b000020 	add	x0, x1, x0
ffffffff800052b4:	f9001fe0 	str	x0, [sp, #56]
ffffffff800052b8:	f9400fe0 	ldr	x0, [sp, #24]
ffffffff800052bc:	b9400800 	ldr	w0, [x0, #8]
ffffffff800052c0:	3100041f 	cmn	w0, #0x1
ffffffff800052c4:	540000e1 	b.ne	ffffffff800052e0 <plot_char_fast+0x22c>  // b.any
ffffffff800052c8:	f9401fe0 	ldr	x0, [sp, #56]
ffffffff800052cc:	d37ef400 	lsl	x0, x0, #2
ffffffff800052d0:	f94027e1 	ldr	x1, [sp, #72]
ffffffff800052d4:	8b000020 	add	x0, x1, x0
ffffffff800052d8:	b9400000 	ldr	w0, [x0]
ffffffff800052dc:	14000003 	b	ffffffff800052e8 <plot_char_fast+0x234>
ffffffff800052e0:	f9400fe0 	ldr	x0, [sp, #24]
ffffffff800052e4:	b9400800 	ldr	w0, [x0, #8]
ffffffff800052e8:	b90037e0 	str	w0, [sp, #52]
ffffffff800052ec:	f9400fe0 	ldr	x0, [sp, #24]
ffffffff800052f0:	b9400400 	ldr	w0, [x0, #4]
ffffffff800052f4:	3100041f 	cmn	w0, #0x1
ffffffff800052f8:	540000e1 	b.ne	ffffffff80005314 <plot_char_fast+0x260>  // b.any
ffffffff800052fc:	f9401fe0 	ldr	x0, [sp, #56]
ffffffff80005300:	d37ef400 	lsl	x0, x0, #2
ffffffff80005304:	f94027e1 	ldr	x1, [sp, #72]
ffffffff80005308:	8b000020 	add	x0, x1, x0
ffffffff8000530c:	b9400000 	ldr	w0, [x0]
ffffffff80005310:	14000003 	b	ffffffff8000531c <plot_char_fast+0x268>
ffffffff80005314:	f9400fe0 	ldr	x0, [sp, #24]
ffffffff80005318:	b9400400 	ldr	w0, [x0, #4]
ffffffff8000531c:	b90033e0 	str	w0, [sp, #48]
ffffffff80005320:	39411be0 	ldrb	w0, [sp, #70]
ffffffff80005324:	12000000 	and	w0, w0, #0x1
ffffffff80005328:	7100001f 	cmp	w0, #0x0
ffffffff8000532c:	54000060 	b.eq	ffffffff80005338 <plot_char_fast+0x284>  // b.none
ffffffff80005330:	b94033e0 	ldr	w0, [sp, #48]
ffffffff80005334:	14000002 	b	ffffffff8000533c <plot_char_fast+0x288>
ffffffff80005338:	b94037e0 	ldr	w0, [sp, #52]
ffffffff8000533c:	f9401fe1 	ldr	x1, [sp, #56]
ffffffff80005340:	d37ef421 	lsl	x1, x1, #2
ffffffff80005344:	f9402be2 	ldr	x2, [sp, #80]
ffffffff80005348:	8b010041 	add	x1, x2, x1
ffffffff8000534c:	b9000020 	str	w0, [x1]
ffffffff80005350:	f9403fe0 	ldr	x0, [sp, #120]
ffffffff80005354:	91000400 	add	x0, x0, #0x1
ffffffff80005358:	f9003fe0 	str	x0, [sp, #120]
ffffffff8000535c:	f9403be0 	ldr	x0, [sp, #112]
ffffffff80005360:	f940e800 	ldr	x0, [x0, #464]
ffffffff80005364:	f9403fe1 	ldr	x1, [sp, #120]
ffffffff80005368:	eb00003f 	cmp	x1, x0
ffffffff8000536c:	54fff983 	b.cc	ffffffff8000529c <plot_char_fast+0x1e8>  // b.lo, b.ul, b.last
ffffffff80005370:	14000002 	b	ffffffff80005378 <plot_char_fast+0x2c4>
ffffffff80005374:	d503201f 	nop
ffffffff80005378:	f94043e0 	ldr	x0, [sp, #128]
ffffffff8000537c:	91000400 	add	x0, x0, #0x1
ffffffff80005380:	f90043e0 	str	x0, [sp, #128]
ffffffff80005384:	f9403be0 	ldr	x0, [sp, #112]
ffffffff80005388:	f940d800 	ldr	x0, [x0, #432]
ffffffff8000538c:	f94043e1 	ldr	x1, [sp, #128]
ffffffff80005390:	eb00003f 	cmp	x1, x0
ffffffff80005394:	54fff503 	b.cc	ffffffff80005234 <plot_char_fast+0x180>  // b.lo, b.ul, b.last
ffffffff80005398:	f94047e0 	ldr	x0, [sp, #136]
ffffffff8000539c:	91000400 	add	x0, x0, #0x1
ffffffff800053a0:	f90047e0 	str	x0, [sp, #136]
ffffffff800053a4:	f9403be0 	ldr	x0, [sp, #112]
ffffffff800053a8:	f940e400 	ldr	x0, [x0, #456]
ffffffff800053ac:	f94047e1 	ldr	x1, [sp, #136]
ffffffff800053b0:	eb00003f 	cmp	x1, x0
ffffffff800053b4:	54ffefc3 	b.cc	ffffffff800051ac <plot_char_fast+0xf8>  // b.lo, b.ul, b.last
ffffffff800053b8:	14000002 	b	ffffffff800053c0 <plot_char_fast+0x30c>
ffffffff800053bc:	d503201f 	nop
ffffffff800053c0:	910243ff 	add	sp, sp, #0x90
ffffffff800053c4:	d65f03c0 	ret

ffffffff800053c8 <compare_char>:
ffffffff800053c8:	d10043ff 	sub	sp, sp, #0x10
ffffffff800053cc:	f90007e0 	str	x0, [sp, #8]
ffffffff800053d0:	f90003e1 	str	x1, [sp]
ffffffff800053d4:	f94007e0 	ldr	x0, [sp, #8]
ffffffff800053d8:	b9400001 	ldr	w1, [x0]
ffffffff800053dc:	f94003e0 	ldr	x0, [sp]
ffffffff800053e0:	b9400000 	ldr	w0, [x0]
ffffffff800053e4:	6b00003f 	cmp	w1, w0
ffffffff800053e8:	540001e1 	b.ne	ffffffff80005424 <compare_char+0x5c>  // b.any
ffffffff800053ec:	f94007e0 	ldr	x0, [sp, #8]
ffffffff800053f0:	b9400801 	ldr	w1, [x0, #8]
ffffffff800053f4:	f94003e0 	ldr	x0, [sp]
ffffffff800053f8:	b9400800 	ldr	w0, [x0, #8]
ffffffff800053fc:	6b00003f 	cmp	w1, w0
ffffffff80005400:	54000121 	b.ne	ffffffff80005424 <compare_char+0x5c>  // b.any
ffffffff80005404:	f94007e0 	ldr	x0, [sp, #8]
ffffffff80005408:	b9400401 	ldr	w1, [x0, #4]
ffffffff8000540c:	f94003e0 	ldr	x0, [sp]
ffffffff80005410:	b9400400 	ldr	w0, [x0, #4]
ffffffff80005414:	6b00003f 	cmp	w1, w0
ffffffff80005418:	54000061 	b.ne	ffffffff80005424 <compare_char+0x5c>  // b.any
ffffffff8000541c:	52800020 	mov	w0, #0x1                   	// #1
ffffffff80005420:	14000002 	b	ffffffff80005428 <compare_char+0x60>
ffffffff80005424:	52800000 	mov	w0, #0x0                   	// #0
ffffffff80005428:	12000000 	and	w0, w0, #0x1
ffffffff8000542c:	12001c00 	and	w0, w0, #0xff
ffffffff80005430:	910043ff 	add	sp, sp, #0x10
ffffffff80005434:	d65f03c0 	ret

ffffffff80005438 <push_to_queue>:
ffffffff80005438:	a9bb7bfd 	stp	x29, x30, [sp, #-80]!
ffffffff8000543c:	910003fd 	mov	x29, sp
ffffffff80005440:	f90017e0 	str	x0, [sp, #40]
ffffffff80005444:	f90013e1 	str	x1, [sp, #32]
ffffffff80005448:	f9000fe2 	str	x2, [sp, #24]
ffffffff8000544c:	f9000be3 	str	x3, [sp, #16]
ffffffff80005450:	f94017e0 	ldr	x0, [sp, #40]
ffffffff80005454:	f90023e0 	str	x0, [sp, #64]
ffffffff80005458:	f94017e0 	ldr	x0, [sp, #40]
ffffffff8000545c:	f9407400 	ldr	x0, [x0, #232]
ffffffff80005460:	f9400fe1 	ldr	x1, [sp, #24]
ffffffff80005464:	eb00003f 	cmp	x1, x0
ffffffff80005468:	54000882 	b.cs	ffffffff80005578 <push_to_queue+0x140>  // b.hs, b.nlast
ffffffff8000546c:	f94017e0 	ldr	x0, [sp, #40]
ffffffff80005470:	f9407000 	ldr	x0, [x0, #224]
ffffffff80005474:	f9400be1 	ldr	x1, [sp, #16]
ffffffff80005478:	eb00003f 	cmp	x1, x0
ffffffff8000547c:	540007e2 	b.cs	ffffffff80005578 <push_to_queue+0x140>  // b.hs, b.nlast
ffffffff80005480:	f94017e0 	ldr	x0, [sp, #40]
ffffffff80005484:	f9407401 	ldr	x1, [x0, #232]
ffffffff80005488:	f9400be0 	ldr	x0, [sp, #16]
ffffffff8000548c:	9b007c20 	mul	x0, x1, x0
ffffffff80005490:	f9400fe1 	ldr	x1, [sp, #24]
ffffffff80005494:	8b000020 	add	x0, x1, x0
ffffffff80005498:	f9001fe0 	str	x0, [sp, #56]
ffffffff8000549c:	f94023e0 	ldr	x0, [sp, #64]
ffffffff800054a0:	f9416401 	ldr	x1, [x0, #712]
ffffffff800054a4:	f9401fe0 	ldr	x0, [sp, #56]
ffffffff800054a8:	d37df000 	lsl	x0, x0, #3
ffffffff800054ac:	8b000020 	add	x0, x1, x0
ffffffff800054b0:	f9400000 	ldr	x0, [x0]
ffffffff800054b4:	f90027e0 	str	x0, [sp, #72]
ffffffff800054b8:	f94027e0 	ldr	x0, [sp, #72]
ffffffff800054bc:	f100001f 	cmp	x0, #0x0
ffffffff800054c0:	540004c1 	b.ne	ffffffff80005558 <push_to_queue+0x120>  // b.any
ffffffff800054c4:	f94023e0 	ldr	x0, [sp, #64]
ffffffff800054c8:	f9415802 	ldr	x2, [x0, #688]
ffffffff800054cc:	f9401fe1 	ldr	x1, [sp, #56]
ffffffff800054d0:	aa0103e0 	mov	x0, x1
ffffffff800054d4:	d37ff800 	lsl	x0, x0, #1
ffffffff800054d8:	8b010000 	add	x0, x0, x1
ffffffff800054dc:	d37ef400 	lsl	x0, x0, #2
ffffffff800054e0:	8b000040 	add	x0, x2, x0
ffffffff800054e4:	f94013e1 	ldr	x1, [sp, #32]
ffffffff800054e8:	97ffffb8 	bl	ffffffff800053c8 <compare_char>
ffffffff800054ec:	12001c00 	and	w0, w0, #0xff
ffffffff800054f0:	12000000 	and	w0, w0, #0x1
ffffffff800054f4:	7100001f 	cmp	w0, #0x0
ffffffff800054f8:	54000441 	b.ne	ffffffff80005580 <push_to_queue+0x148>  // b.any
ffffffff800054fc:	f94023e0 	ldr	x0, [sp, #64]
ffffffff80005500:	f9415c01 	ldr	x1, [x0, #696]
ffffffff80005504:	f94023e0 	ldr	x0, [sp, #64]
ffffffff80005508:	f9416000 	ldr	x0, [x0, #704]
ffffffff8000550c:	91000403 	add	x3, x0, #0x1
ffffffff80005510:	f94023e2 	ldr	x2, [sp, #64]
ffffffff80005514:	f9016043 	str	x3, [x2, #704]
ffffffff80005518:	d37be800 	lsl	x0, x0, #5
ffffffff8000551c:	8b000020 	add	x0, x1, x0
ffffffff80005520:	f90027e0 	str	x0, [sp, #72]
ffffffff80005524:	f94027e0 	ldr	x0, [sp, #72]
ffffffff80005528:	f9400fe1 	ldr	x1, [sp, #24]
ffffffff8000552c:	f9000001 	str	x1, [x0]
ffffffff80005530:	f94027e0 	ldr	x0, [sp, #72]
ffffffff80005534:	f9400be1 	ldr	x1, [sp, #16]
ffffffff80005538:	f9000401 	str	x1, [x0, #8]
ffffffff8000553c:	f94023e0 	ldr	x0, [sp, #64]
ffffffff80005540:	f9416401 	ldr	x1, [x0, #712]
ffffffff80005544:	f9401fe0 	ldr	x0, [sp, #56]
ffffffff80005548:	d37df000 	lsl	x0, x0, #3
ffffffff8000554c:	8b000020 	add	x0, x1, x0
ffffffff80005550:	f94027e1 	ldr	x1, [sp, #72]
ffffffff80005554:	f9000001 	str	x1, [x0]
ffffffff80005558:	f94027e0 	ldr	x0, [sp, #72]
ffffffff8000555c:	91004000 	add	x0, x0, #0x10
ffffffff80005560:	f94013e1 	ldr	x1, [sp, #32]
ffffffff80005564:	f9400022 	ldr	x2, [x1]
ffffffff80005568:	f9000002 	str	x2, [x0]
ffffffff8000556c:	b9400821 	ldr	w1, [x1, #8]
ffffffff80005570:	b9000801 	str	w1, [x0, #8]
ffffffff80005574:	14000004 	b	ffffffff80005584 <push_to_queue+0x14c>
ffffffff80005578:	d503201f 	nop
ffffffff8000557c:	14000002 	b	ffffffff80005584 <push_to_queue+0x14c>
ffffffff80005580:	d503201f 	nop
ffffffff80005584:	a8c57bfd 	ldp	x29, x30, [sp], #80
ffffffff80005588:	d65f03c0 	ret

ffffffff8000558c <flanterm_fb_revscroll>:
ffffffff8000558c:	a9ba7bfd 	stp	x29, x30, [sp, #-96]!
ffffffff80005590:	910003fd 	mov	x29, sp
ffffffff80005594:	f9000fe0 	str	x0, [sp, #24]
ffffffff80005598:	f9400fe0 	ldr	x0, [sp, #24]
ffffffff8000559c:	f90023e0 	str	x0, [sp, #64]
ffffffff800055a0:	f9400fe0 	ldr	x0, [sp, #24]
ffffffff800055a4:	f9403800 	ldr	x0, [x0, #112]
ffffffff800055a8:	d1000401 	sub	x1, x0, #0x1
ffffffff800055ac:	f9400fe0 	ldr	x0, [sp, #24]
ffffffff800055b0:	f9407400 	ldr	x0, [x0, #232]
ffffffff800055b4:	9b007c20 	mul	x0, x1, x0
ffffffff800055b8:	d1000400 	sub	x0, x0, #0x1
ffffffff800055bc:	f9002fe0 	str	x0, [sp, #88]
ffffffff800055c0:	14000032 	b	ffffffff80005688 <flanterm_fb_revscroll+0xfc>
ffffffff800055c4:	f9402fe0 	ldr	x0, [sp, #88]
ffffffff800055c8:	b100041f 	cmn	x0, #0x1
ffffffff800055cc:	54000700 	b.eq	ffffffff800056ac <flanterm_fb_revscroll+0x120>  // b.none
ffffffff800055d0:	f94023e0 	ldr	x0, [sp, #64]
ffffffff800055d4:	f9416401 	ldr	x1, [x0, #712]
ffffffff800055d8:	f9402fe0 	ldr	x0, [sp, #88]
ffffffff800055dc:	d37df000 	lsl	x0, x0, #3
ffffffff800055e0:	8b000020 	add	x0, x1, x0
ffffffff800055e4:	f9400000 	ldr	x0, [x0]
ffffffff800055e8:	f9001fe0 	str	x0, [sp, #56]
ffffffff800055ec:	f9401fe0 	ldr	x0, [sp, #56]
ffffffff800055f0:	f100001f 	cmp	x0, #0x0
ffffffff800055f4:	540000a0 	b.eq	ffffffff80005608 <flanterm_fb_revscroll+0x7c>  // b.none
ffffffff800055f8:	f9401fe0 	ldr	x0, [sp, #56]
ffffffff800055fc:	91004000 	add	x0, x0, #0x10
ffffffff80005600:	f9002be0 	str	x0, [sp, #80]
ffffffff80005604:	1400000a 	b	ffffffff8000562c <flanterm_fb_revscroll+0xa0>
ffffffff80005608:	f94023e0 	ldr	x0, [sp, #64]
ffffffff8000560c:	f9415802 	ldr	x2, [x0, #688]
ffffffff80005610:	f9402fe1 	ldr	x1, [sp, #88]
ffffffff80005614:	aa0103e0 	mov	x0, x1
ffffffff80005618:	d37ff800 	lsl	x0, x0, #1
ffffffff8000561c:	8b010000 	add	x0, x0, x1
ffffffff80005620:	d37ef400 	lsl	x0, x0, #2
ffffffff80005624:	8b000040 	add	x0, x2, x0
ffffffff80005628:	f9002be0 	str	x0, [sp, #80]
ffffffff8000562c:	f9400fe0 	ldr	x0, [sp, #24]
ffffffff80005630:	f9407401 	ldr	x1, [x0, #232]
ffffffff80005634:	f9402fe0 	ldr	x0, [sp, #88]
ffffffff80005638:	8b000020 	add	x0, x1, x0
ffffffff8000563c:	f9400fe1 	ldr	x1, [sp, #24]
ffffffff80005640:	f9407421 	ldr	x1, [x1, #232]
ffffffff80005644:	9ac10802 	udiv	x2, x0, x1
ffffffff80005648:	9b017c41 	mul	x1, x2, x1
ffffffff8000564c:	cb010002 	sub	x2, x0, x1
ffffffff80005650:	f9400fe0 	ldr	x0, [sp, #24]
ffffffff80005654:	f9407401 	ldr	x1, [x0, #232]
ffffffff80005658:	f9402fe0 	ldr	x0, [sp, #88]
ffffffff8000565c:	8b000021 	add	x1, x1, x0
ffffffff80005660:	f9400fe0 	ldr	x0, [sp, #24]
ffffffff80005664:	f9407400 	ldr	x0, [x0, #232]
ffffffff80005668:	9ac00820 	udiv	x0, x1, x0
ffffffff8000566c:	aa0003e3 	mov	x3, x0
ffffffff80005670:	f9402be1 	ldr	x1, [sp, #80]
ffffffff80005674:	f9400fe0 	ldr	x0, [sp, #24]
ffffffff80005678:	97ffff70 	bl	ffffffff80005438 <push_to_queue>
ffffffff8000567c:	f9402fe0 	ldr	x0, [sp, #88]
ffffffff80005680:	d1000400 	sub	x0, x0, #0x1
ffffffff80005684:	f9002fe0 	str	x0, [sp, #88]
ffffffff80005688:	f9400fe0 	ldr	x0, [sp, #24]
ffffffff8000568c:	f9403401 	ldr	x1, [x0, #104]
ffffffff80005690:	f9400fe0 	ldr	x0, [sp, #24]
ffffffff80005694:	f9407400 	ldr	x0, [x0, #232]
ffffffff80005698:	9b007c20 	mul	x0, x1, x0
ffffffff8000569c:	f9402fe1 	ldr	x1, [sp, #88]
ffffffff800056a0:	eb00003f 	cmp	x1, x0
ffffffff800056a4:	54fff902 	b.cs	ffffffff800055c4 <flanterm_fb_revscroll+0x38>  // b.hs, b.nlast
ffffffff800056a8:	14000002 	b	ffffffff800056b0 <flanterm_fb_revscroll+0x124>
ffffffff800056ac:	d503201f 	nop
ffffffff800056b0:	52800400 	mov	w0, #0x20                  	// #32
ffffffff800056b4:	b9002be0 	str	w0, [sp, #40]
ffffffff800056b8:	f94023e0 	ldr	x0, [sp, #64]
ffffffff800056bc:	b942d000 	ldr	w0, [x0, #720]
ffffffff800056c0:	b9002fe0 	str	w0, [sp, #44]
ffffffff800056c4:	f94023e0 	ldr	x0, [sp, #64]
ffffffff800056c8:	b942d400 	ldr	w0, [x0, #724]
ffffffff800056cc:	b90033e0 	str	w0, [sp, #48]
ffffffff800056d0:	f90027ff 	str	xzr, [sp, #72]
ffffffff800056d4:	1400000c 	b	ffffffff80005704 <flanterm_fb_revscroll+0x178>
ffffffff800056d8:	f9400fe0 	ldr	x0, [sp, #24]
ffffffff800056dc:	f9403401 	ldr	x1, [x0, #104]
ffffffff800056e0:	9100a3e0 	add	x0, sp, #0x28
ffffffff800056e4:	aa0103e3 	mov	x3, x1
ffffffff800056e8:	f94027e2 	ldr	x2, [sp, #72]
ffffffff800056ec:	aa0003e1 	mov	x1, x0
ffffffff800056f0:	f9400fe0 	ldr	x0, [sp, #24]
ffffffff800056f4:	97ffff51 	bl	ffffffff80005438 <push_to_queue>
ffffffff800056f8:	f94027e0 	ldr	x0, [sp, #72]
ffffffff800056fc:	91000400 	add	x0, x0, #0x1
ffffffff80005700:	f90027e0 	str	x0, [sp, #72]
ffffffff80005704:	f9400fe0 	ldr	x0, [sp, #24]
ffffffff80005708:	f9407400 	ldr	x0, [x0, #232]
ffffffff8000570c:	f94027e1 	ldr	x1, [sp, #72]
ffffffff80005710:	eb00003f 	cmp	x1, x0
ffffffff80005714:	54fffe23 	b.cc	ffffffff800056d8 <flanterm_fb_revscroll+0x14c>  // b.lo, b.ul, b.last
ffffffff80005718:	d503201f 	nop
ffffffff8000571c:	d503201f 	nop
ffffffff80005720:	a8c67bfd 	ldp	x29, x30, [sp], #96
ffffffff80005724:	d65f03c0 	ret

ffffffff80005728 <flanterm_fb_scroll>:
ffffffff80005728:	a9ba7bfd 	stp	x29, x30, [sp, #-96]!
ffffffff8000572c:	910003fd 	mov	x29, sp
ffffffff80005730:	f9000fe0 	str	x0, [sp, #24]
ffffffff80005734:	f9400fe0 	ldr	x0, [sp, #24]
ffffffff80005738:	f90023e0 	str	x0, [sp, #64]
ffffffff8000573c:	f9400fe0 	ldr	x0, [sp, #24]
ffffffff80005740:	f9403400 	ldr	x0, [x0, #104]
ffffffff80005744:	91000401 	add	x1, x0, #0x1
ffffffff80005748:	f9400fe0 	ldr	x0, [sp, #24]
ffffffff8000574c:	f9407400 	ldr	x0, [x0, #232]
ffffffff80005750:	9b007c20 	mul	x0, x1, x0
ffffffff80005754:	f9002fe0 	str	x0, [sp, #88]
ffffffff80005758:	1400002f 	b	ffffffff80005814 <flanterm_fb_scroll+0xec>
ffffffff8000575c:	f94023e0 	ldr	x0, [sp, #64]
ffffffff80005760:	f9416401 	ldr	x1, [x0, #712]
ffffffff80005764:	f9402fe0 	ldr	x0, [sp, #88]
ffffffff80005768:	d37df000 	lsl	x0, x0, #3
ffffffff8000576c:	8b000020 	add	x0, x1, x0
ffffffff80005770:	f9400000 	ldr	x0, [x0]
ffffffff80005774:	f9001fe0 	str	x0, [sp, #56]
ffffffff80005778:	f9401fe0 	ldr	x0, [sp, #56]
ffffffff8000577c:	f100001f 	cmp	x0, #0x0
ffffffff80005780:	540000a0 	b.eq	ffffffff80005794 <flanterm_fb_scroll+0x6c>  // b.none
ffffffff80005784:	f9401fe0 	ldr	x0, [sp, #56]
ffffffff80005788:	91004000 	add	x0, x0, #0x10
ffffffff8000578c:	f9002be0 	str	x0, [sp, #80]
ffffffff80005790:	1400000a 	b	ffffffff800057b8 <flanterm_fb_scroll+0x90>
ffffffff80005794:	f94023e0 	ldr	x0, [sp, #64]
ffffffff80005798:	f9415802 	ldr	x2, [x0, #688]
ffffffff8000579c:	f9402fe1 	ldr	x1, [sp, #88]
ffffffff800057a0:	aa0103e0 	mov	x0, x1
ffffffff800057a4:	d37ff800 	lsl	x0, x0, #1
ffffffff800057a8:	8b010000 	add	x0, x0, x1
ffffffff800057ac:	d37ef400 	lsl	x0, x0, #2
ffffffff800057b0:	8b000040 	add	x0, x2, x0
ffffffff800057b4:	f9002be0 	str	x0, [sp, #80]
ffffffff800057b8:	f9400fe0 	ldr	x0, [sp, #24]
ffffffff800057bc:	f9407400 	ldr	x0, [x0, #232]
ffffffff800057c0:	f9402fe1 	ldr	x1, [sp, #88]
ffffffff800057c4:	cb000020 	sub	x0, x1, x0
ffffffff800057c8:	f9400fe1 	ldr	x1, [sp, #24]
ffffffff800057cc:	f9407421 	ldr	x1, [x1, #232]
ffffffff800057d0:	9ac10802 	udiv	x2, x0, x1
ffffffff800057d4:	9b017c41 	mul	x1, x2, x1
ffffffff800057d8:	cb010002 	sub	x2, x0, x1
ffffffff800057dc:	f9400fe0 	ldr	x0, [sp, #24]
ffffffff800057e0:	f9407400 	ldr	x0, [x0, #232]
ffffffff800057e4:	f9402fe1 	ldr	x1, [sp, #88]
ffffffff800057e8:	cb000021 	sub	x1, x1, x0
ffffffff800057ec:	f9400fe0 	ldr	x0, [sp, #24]
ffffffff800057f0:	f9407400 	ldr	x0, [x0, #232]
ffffffff800057f4:	9ac00820 	udiv	x0, x1, x0
ffffffff800057f8:	aa0003e3 	mov	x3, x0
ffffffff800057fc:	f9402be1 	ldr	x1, [sp, #80]
ffffffff80005800:	f9400fe0 	ldr	x0, [sp, #24]
ffffffff80005804:	97ffff0d 	bl	ffffffff80005438 <push_to_queue>
ffffffff80005808:	f9402fe0 	ldr	x0, [sp, #88]
ffffffff8000580c:	91000400 	add	x0, x0, #0x1
ffffffff80005810:	f9002fe0 	str	x0, [sp, #88]
ffffffff80005814:	f9400fe0 	ldr	x0, [sp, #24]
ffffffff80005818:	f9403801 	ldr	x1, [x0, #112]
ffffffff8000581c:	f9400fe0 	ldr	x0, [sp, #24]
ffffffff80005820:	f9407400 	ldr	x0, [x0, #232]
ffffffff80005824:	9b007c20 	mul	x0, x1, x0
ffffffff80005828:	f9402fe1 	ldr	x1, [sp, #88]
ffffffff8000582c:	eb00003f 	cmp	x1, x0
ffffffff80005830:	54fff963 	b.cc	ffffffff8000575c <flanterm_fb_scroll+0x34>  // b.lo, b.ul, b.last
ffffffff80005834:	52800400 	mov	w0, #0x20                  	// #32
ffffffff80005838:	b9002be0 	str	w0, [sp, #40]
ffffffff8000583c:	f94023e0 	ldr	x0, [sp, #64]
ffffffff80005840:	b942d000 	ldr	w0, [x0, #720]
ffffffff80005844:	b9002fe0 	str	w0, [sp, #44]
ffffffff80005848:	f94023e0 	ldr	x0, [sp, #64]
ffffffff8000584c:	b942d400 	ldr	w0, [x0, #724]
ffffffff80005850:	b90033e0 	str	w0, [sp, #48]
ffffffff80005854:	f90027ff 	str	xzr, [sp, #72]
ffffffff80005858:	1400000d 	b	ffffffff8000588c <flanterm_fb_scroll+0x164>
ffffffff8000585c:	f9400fe0 	ldr	x0, [sp, #24]
ffffffff80005860:	f9403800 	ldr	x0, [x0, #112]
ffffffff80005864:	d1000401 	sub	x1, x0, #0x1
ffffffff80005868:	9100a3e0 	add	x0, sp, #0x28
ffffffff8000586c:	aa0103e3 	mov	x3, x1
ffffffff80005870:	f94027e2 	ldr	x2, [sp, #72]
ffffffff80005874:	aa0003e1 	mov	x1, x0
ffffffff80005878:	f9400fe0 	ldr	x0, [sp, #24]
ffffffff8000587c:	97fffeef 	bl	ffffffff80005438 <push_to_queue>
ffffffff80005880:	f94027e0 	ldr	x0, [sp, #72]
ffffffff80005884:	91000400 	add	x0, x0, #0x1
ffffffff80005888:	f90027e0 	str	x0, [sp, #72]
ffffffff8000588c:	f9400fe0 	ldr	x0, [sp, #24]
ffffffff80005890:	f9407400 	ldr	x0, [x0, #232]
ffffffff80005894:	f94027e1 	ldr	x1, [sp, #72]
ffffffff80005898:	eb00003f 	cmp	x1, x0
ffffffff8000589c:	54fffe03 	b.cc	ffffffff8000585c <flanterm_fb_scroll+0x134>  // b.lo, b.ul, b.last
ffffffff800058a0:	d503201f 	nop
ffffffff800058a4:	d503201f 	nop
ffffffff800058a8:	a8c67bfd 	ldp	x29, x30, [sp], #96
ffffffff800058ac:	d65f03c0 	ret

ffffffff800058b0 <flanterm_fb_clear>:
ffffffff800058b0:	a9bc7bfd 	stp	x29, x30, [sp, #-64]!
ffffffff800058b4:	910003fd 	mov	x29, sp
ffffffff800058b8:	f9000fe0 	str	x0, [sp, #24]
ffffffff800058bc:	39005fe1 	strb	w1, [sp, #23]
ffffffff800058c0:	f9400fe0 	ldr	x0, [sp, #24]
ffffffff800058c4:	f9001be0 	str	x0, [sp, #48]
ffffffff800058c8:	52800400 	mov	w0, #0x20                  	// #32
ffffffff800058cc:	b90023e0 	str	w0, [sp, #32]
ffffffff800058d0:	f9401be0 	ldr	x0, [sp, #48]
ffffffff800058d4:	b942d000 	ldr	w0, [x0, #720]
ffffffff800058d8:	b90027e0 	str	w0, [sp, #36]
ffffffff800058dc:	f9401be0 	ldr	x0, [sp, #48]
ffffffff800058e0:	b942d400 	ldr	w0, [x0, #724]
ffffffff800058e4:	b9002be0 	str	w0, [sp, #40]
ffffffff800058e8:	f9001fff 	str	xzr, [sp, #56]
ffffffff800058ec:	14000013 	b	ffffffff80005938 <flanterm_fb_clear+0x88>
ffffffff800058f0:	f9400fe0 	ldr	x0, [sp, #24]
ffffffff800058f4:	f9407401 	ldr	x1, [x0, #232]
ffffffff800058f8:	f9401fe0 	ldr	x0, [sp, #56]
ffffffff800058fc:	9ac10802 	udiv	x2, x0, x1
ffffffff80005900:	9b017c41 	mul	x1, x2, x1
ffffffff80005904:	cb010002 	sub	x2, x0, x1
ffffffff80005908:	f9400fe0 	ldr	x0, [sp, #24]
ffffffff8000590c:	f9407400 	ldr	x0, [x0, #232]
ffffffff80005910:	f9401fe1 	ldr	x1, [sp, #56]
ffffffff80005914:	9ac00821 	udiv	x1, x1, x0
ffffffff80005918:	910083e0 	add	x0, sp, #0x20
ffffffff8000591c:	aa0103e3 	mov	x3, x1
ffffffff80005920:	aa0003e1 	mov	x1, x0
ffffffff80005924:	f9400fe0 	ldr	x0, [sp, #24]
ffffffff80005928:	97fffec4 	bl	ffffffff80005438 <push_to_queue>
ffffffff8000592c:	f9401fe0 	ldr	x0, [sp, #56]
ffffffff80005930:	91000400 	add	x0, x0, #0x1
ffffffff80005934:	f9001fe0 	str	x0, [sp, #56]
ffffffff80005938:	f9400fe0 	ldr	x0, [sp, #24]
ffffffff8000593c:	f9407001 	ldr	x1, [x0, #224]
ffffffff80005940:	f9400fe0 	ldr	x0, [sp, #24]
ffffffff80005944:	f9407400 	ldr	x0, [x0, #232]
ffffffff80005948:	9b007c20 	mul	x0, x1, x0
ffffffff8000594c:	f9401fe1 	ldr	x1, [sp, #56]
ffffffff80005950:	eb00003f 	cmp	x1, x0
ffffffff80005954:	54fffce3 	b.cc	ffffffff800058f0 <flanterm_fb_clear+0x40>  // b.lo, b.ul, b.last
ffffffff80005958:	39405fe0 	ldrb	w0, [sp, #23]
ffffffff8000595c:	12000000 	and	w0, w0, #0x1
ffffffff80005960:	7100001f 	cmp	w0, #0x0
ffffffff80005964:	540000a0 	b.eq	ffffffff80005978 <flanterm_fb_clear+0xc8>  // b.none
ffffffff80005968:	f9401be0 	ldr	x0, [sp, #48]
ffffffff8000596c:	f9016c1f 	str	xzr, [x0, #728]
ffffffff80005970:	f9401be0 	ldr	x0, [sp, #48]
ffffffff80005974:	f901701f 	str	xzr, [x0, #736]
ffffffff80005978:	d503201f 	nop
ffffffff8000597c:	a8c47bfd 	ldp	x29, x30, [sp], #64
ffffffff80005980:	d65f03c0 	ret

ffffffff80005984 <flanterm_fb_set_cursor_pos>:
ffffffff80005984:	d100c3ff 	sub	sp, sp, #0x30
ffffffff80005988:	f9000fe0 	str	x0, [sp, #24]
ffffffff8000598c:	f9000be1 	str	x1, [sp, #16]
ffffffff80005990:	f90007e2 	str	x2, [sp, #8]
ffffffff80005994:	f9400fe0 	ldr	x0, [sp, #24]
ffffffff80005998:	f90017e0 	str	x0, [sp, #40]
ffffffff8000599c:	f9400fe0 	ldr	x0, [sp, #24]
ffffffff800059a0:	f9407400 	ldr	x0, [x0, #232]
ffffffff800059a4:	f9400be1 	ldr	x1, [sp, #16]
ffffffff800059a8:	eb00003f 	cmp	x1, x0
ffffffff800059ac:	54000143 	b.cc	ffffffff800059d4 <flanterm_fb_set_cursor_pos+0x50>  // b.lo, b.ul, b.last
ffffffff800059b0:	f9400be0 	ldr	x0, [sp, #16]
ffffffff800059b4:	7100001f 	cmp	w0, #0x0
ffffffff800059b8:	5400006a 	b.ge	ffffffff800059c4 <flanterm_fb_set_cursor_pos+0x40>  // b.tcont
ffffffff800059bc:	f9000bff 	str	xzr, [sp, #16]
ffffffff800059c0:	14000005 	b	ffffffff800059d4 <flanterm_fb_set_cursor_pos+0x50>
ffffffff800059c4:	f9400fe0 	ldr	x0, [sp, #24]
ffffffff800059c8:	f9407400 	ldr	x0, [x0, #232]
ffffffff800059cc:	d1000400 	sub	x0, x0, #0x1
ffffffff800059d0:	f9000be0 	str	x0, [sp, #16]
ffffffff800059d4:	f9400fe0 	ldr	x0, [sp, #24]
ffffffff800059d8:	f9407000 	ldr	x0, [x0, #224]
ffffffff800059dc:	f94007e1 	ldr	x1, [sp, #8]
ffffffff800059e0:	eb00003f 	cmp	x1, x0
ffffffff800059e4:	54000143 	b.cc	ffffffff80005a0c <flanterm_fb_set_cursor_pos+0x88>  // b.lo, b.ul, b.last
ffffffff800059e8:	f94007e0 	ldr	x0, [sp, #8]
ffffffff800059ec:	7100001f 	cmp	w0, #0x0
ffffffff800059f0:	5400006a 	b.ge	ffffffff800059fc <flanterm_fb_set_cursor_pos+0x78>  // b.tcont
ffffffff800059f4:	f90007ff 	str	xzr, [sp, #8]
ffffffff800059f8:	14000005 	b	ffffffff80005a0c <flanterm_fb_set_cursor_pos+0x88>
ffffffff800059fc:	f9400fe0 	ldr	x0, [sp, #24]
ffffffff80005a00:	f9407000 	ldr	x0, [x0, #224]
ffffffff80005a04:	d1000400 	sub	x0, x0, #0x1
ffffffff80005a08:	f90007e0 	str	x0, [sp, #8]
ffffffff80005a0c:	f94017e0 	ldr	x0, [sp, #40]
ffffffff80005a10:	f9400be1 	ldr	x1, [sp, #16]
ffffffff80005a14:	f9016c01 	str	x1, [x0, #728]
ffffffff80005a18:	f94017e0 	ldr	x0, [sp, #40]
ffffffff80005a1c:	f94007e1 	ldr	x1, [sp, #8]
ffffffff80005a20:	f9017001 	str	x1, [x0, #736]
ffffffff80005a24:	d503201f 	nop
ffffffff80005a28:	9100c3ff 	add	sp, sp, #0x30
ffffffff80005a2c:	d65f03c0 	ret

ffffffff80005a30 <flanterm_fb_get_cursor_pos>:
ffffffff80005a30:	d100c3ff 	sub	sp, sp, #0x30
ffffffff80005a34:	f9000fe0 	str	x0, [sp, #24]
ffffffff80005a38:	f9000be1 	str	x1, [sp, #16]
ffffffff80005a3c:	f90007e2 	str	x2, [sp, #8]
ffffffff80005a40:	f9400fe0 	ldr	x0, [sp, #24]
ffffffff80005a44:	f90017e0 	str	x0, [sp, #40]
ffffffff80005a48:	f94017e0 	ldr	x0, [sp, #40]
ffffffff80005a4c:	f9416c01 	ldr	x1, [x0, #728]
ffffffff80005a50:	f9400fe0 	ldr	x0, [sp, #24]
ffffffff80005a54:	f9407400 	ldr	x0, [x0, #232]
ffffffff80005a58:	eb00003f 	cmp	x1, x0
ffffffff80005a5c:	540000a3 	b.cc	ffffffff80005a70 <flanterm_fb_get_cursor_pos+0x40>  // b.lo, b.ul, b.last
ffffffff80005a60:	f9400fe0 	ldr	x0, [sp, #24]
ffffffff80005a64:	f9407400 	ldr	x0, [x0, #232]
ffffffff80005a68:	d1000400 	sub	x0, x0, #0x1
ffffffff80005a6c:	14000003 	b	ffffffff80005a78 <flanterm_fb_get_cursor_pos+0x48>
ffffffff80005a70:	f94017e0 	ldr	x0, [sp, #40]
ffffffff80005a74:	f9416c00 	ldr	x0, [x0, #728]
ffffffff80005a78:	f9400be1 	ldr	x1, [sp, #16]
ffffffff80005a7c:	f9000020 	str	x0, [x1]
ffffffff80005a80:	f94017e0 	ldr	x0, [sp, #40]
ffffffff80005a84:	f9417001 	ldr	x1, [x0, #736]
ffffffff80005a88:	f9400fe0 	ldr	x0, [sp, #24]
ffffffff80005a8c:	f9407000 	ldr	x0, [x0, #224]
ffffffff80005a90:	eb00003f 	cmp	x1, x0
ffffffff80005a94:	540000a3 	b.cc	ffffffff80005aa8 <flanterm_fb_get_cursor_pos+0x78>  // b.lo, b.ul, b.last
ffffffff80005a98:	f9400fe0 	ldr	x0, [sp, #24]
ffffffff80005a9c:	f9407000 	ldr	x0, [x0, #224]
ffffffff80005aa0:	d1000400 	sub	x0, x0, #0x1
ffffffff80005aa4:	14000003 	b	ffffffff80005ab0 <flanterm_fb_get_cursor_pos+0x80>
ffffffff80005aa8:	f94017e0 	ldr	x0, [sp, #40]
ffffffff80005aac:	f9417000 	ldr	x0, [x0, #736]
ffffffff80005ab0:	f94007e1 	ldr	x1, [sp, #8]
ffffffff80005ab4:	f9000020 	str	x0, [x1]
ffffffff80005ab8:	d503201f 	nop
ffffffff80005abc:	9100c3ff 	add	sp, sp, #0x30
ffffffff80005ac0:	d65f03c0 	ret

ffffffff80005ac4 <flanterm_fb_move_character>:
ffffffff80005ac4:	a9ba7bfd 	stp	x29, x30, [sp, #-96]!
ffffffff80005ac8:	910003fd 	mov	x29, sp
ffffffff80005acc:	f9001fe0 	str	x0, [sp, #56]
ffffffff80005ad0:	f9001be1 	str	x1, [sp, #48]
ffffffff80005ad4:	f90017e2 	str	x2, [sp, #40]
ffffffff80005ad8:	f90013e3 	str	x3, [sp, #32]
ffffffff80005adc:	f9000fe4 	str	x4, [sp, #24]
ffffffff80005ae0:	f9401fe0 	ldr	x0, [sp, #56]
ffffffff80005ae4:	f9002be0 	str	x0, [sp, #80]
ffffffff80005ae8:	f9401fe0 	ldr	x0, [sp, #56]
ffffffff80005aec:	f9407400 	ldr	x0, [x0, #232]
ffffffff80005af0:	f94013e1 	ldr	x1, [sp, #32]
ffffffff80005af4:	eb00003f 	cmp	x1, x0
ffffffff80005af8:	54000682 	b.cs	ffffffff80005bc8 <flanterm_fb_move_character+0x104>  // b.hs, b.nlast
ffffffff80005afc:	f9401fe0 	ldr	x0, [sp, #56]
ffffffff80005b00:	f9407000 	ldr	x0, [x0, #224]
ffffffff80005b04:	f9400fe1 	ldr	x1, [sp, #24]
ffffffff80005b08:	eb00003f 	cmp	x1, x0
ffffffff80005b0c:	540005e2 	b.cs	ffffffff80005bc8 <flanterm_fb_move_character+0x104>  // b.hs, b.nlast
ffffffff80005b10:	f9401fe0 	ldr	x0, [sp, #56]
ffffffff80005b14:	f9407400 	ldr	x0, [x0, #232]
ffffffff80005b18:	f9401be1 	ldr	x1, [sp, #48]
ffffffff80005b1c:	eb00003f 	cmp	x1, x0
ffffffff80005b20:	54000542 	b.cs	ffffffff80005bc8 <flanterm_fb_move_character+0x104>  // b.hs, b.nlast
ffffffff80005b24:	f9401fe0 	ldr	x0, [sp, #56]
ffffffff80005b28:	f9407000 	ldr	x0, [x0, #224]
ffffffff80005b2c:	f94017e1 	ldr	x1, [sp, #40]
ffffffff80005b30:	eb00003f 	cmp	x1, x0
ffffffff80005b34:	540004a2 	b.cs	ffffffff80005bc8 <flanterm_fb_move_character+0x104>  // b.hs, b.nlast
ffffffff80005b38:	f9401fe0 	ldr	x0, [sp, #56]
ffffffff80005b3c:	f9407401 	ldr	x1, [x0, #232]
ffffffff80005b40:	f9400fe0 	ldr	x0, [sp, #24]
ffffffff80005b44:	9b007c20 	mul	x0, x1, x0
ffffffff80005b48:	f94013e1 	ldr	x1, [sp, #32]
ffffffff80005b4c:	8b000020 	add	x0, x1, x0
ffffffff80005b50:	f90027e0 	str	x0, [sp, #72]
ffffffff80005b54:	f9402be0 	ldr	x0, [sp, #80]
ffffffff80005b58:	f9416401 	ldr	x1, [x0, #712]
ffffffff80005b5c:	f94027e0 	ldr	x0, [sp, #72]
ffffffff80005b60:	d37df000 	lsl	x0, x0, #3
ffffffff80005b64:	8b000020 	add	x0, x1, x0
ffffffff80005b68:	f9400000 	ldr	x0, [x0]
ffffffff80005b6c:	f90023e0 	str	x0, [sp, #64]
ffffffff80005b70:	f94023e0 	ldr	x0, [sp, #64]
ffffffff80005b74:	f100001f 	cmp	x0, #0x0
ffffffff80005b78:	540000a0 	b.eq	ffffffff80005b8c <flanterm_fb_move_character+0xc8>  // b.none
ffffffff80005b7c:	f94023e0 	ldr	x0, [sp, #64]
ffffffff80005b80:	91004000 	add	x0, x0, #0x10
ffffffff80005b84:	f9002fe0 	str	x0, [sp, #88]
ffffffff80005b88:	1400000a 	b	ffffffff80005bb0 <flanterm_fb_move_character+0xec>
ffffffff80005b8c:	f9402be0 	ldr	x0, [sp, #80]
ffffffff80005b90:	f9415802 	ldr	x2, [x0, #688]
ffffffff80005b94:	f94027e1 	ldr	x1, [sp, #72]
ffffffff80005b98:	aa0103e0 	mov	x0, x1
ffffffff80005b9c:	d37ff800 	lsl	x0, x0, #1
ffffffff80005ba0:	8b010000 	add	x0, x0, x1
ffffffff80005ba4:	d37ef400 	lsl	x0, x0, #2
ffffffff80005ba8:	8b000040 	add	x0, x2, x0
ffffffff80005bac:	f9002fe0 	str	x0, [sp, #88]
ffffffff80005bb0:	f94017e3 	ldr	x3, [sp, #40]
ffffffff80005bb4:	f9401be2 	ldr	x2, [sp, #48]
ffffffff80005bb8:	f9402fe1 	ldr	x1, [sp, #88]
ffffffff80005bbc:	f9401fe0 	ldr	x0, [sp, #56]
ffffffff80005bc0:	97fffe1e 	bl	ffffffff80005438 <push_to_queue>
ffffffff80005bc4:	14000002 	b	ffffffff80005bcc <flanterm_fb_move_character+0x108>
ffffffff80005bc8:	d503201f 	nop
ffffffff80005bcc:	a8c67bfd 	ldp	x29, x30, [sp], #96
ffffffff80005bd0:	d65f03c0 	ret

ffffffff80005bd4 <flanterm_fb_set_text_fg>:
ffffffff80005bd4:	d10083ff 	sub	sp, sp, #0x20
ffffffff80005bd8:	f90007e0 	str	x0, [sp, #8]
ffffffff80005bdc:	f90003e1 	str	x1, [sp]
ffffffff80005be0:	f94007e0 	ldr	x0, [sp, #8]
ffffffff80005be4:	f9000fe0 	str	x0, [sp, #24]
ffffffff80005be8:	f9400fe1 	ldr	x1, [sp, #24]
ffffffff80005bec:	f94003e0 	ldr	x0, [sp]
ffffffff80005bf0:	91023000 	add	x0, x0, #0x8c
ffffffff80005bf4:	d37ef400 	lsl	x0, x0, #2
ffffffff80005bf8:	8b000020 	add	x0, x1, x0
ffffffff80005bfc:	b9400801 	ldr	w1, [x0, #8]
ffffffff80005c00:	f9400fe0 	ldr	x0, [sp, #24]
ffffffff80005c04:	b902d001 	str	w1, [x0, #720]
ffffffff80005c08:	d503201f 	nop
ffffffff80005c0c:	910083ff 	add	sp, sp, #0x20
ffffffff80005c10:	d65f03c0 	ret

ffffffff80005c14 <flanterm_fb_set_text_bg>:
ffffffff80005c14:	d10083ff 	sub	sp, sp, #0x20
ffffffff80005c18:	f90007e0 	str	x0, [sp, #8]
ffffffff80005c1c:	f90003e1 	str	x1, [sp]
ffffffff80005c20:	f94007e0 	ldr	x0, [sp, #8]
ffffffff80005c24:	f9000fe0 	str	x0, [sp, #24]
ffffffff80005c28:	f9400fe1 	ldr	x1, [sp, #24]
ffffffff80005c2c:	f94003e0 	ldr	x0, [sp]
ffffffff80005c30:	91023000 	add	x0, x0, #0x8c
ffffffff80005c34:	d37ef400 	lsl	x0, x0, #2
ffffffff80005c38:	8b000020 	add	x0, x1, x0
ffffffff80005c3c:	b9400801 	ldr	w1, [x0, #8]
ffffffff80005c40:	f9400fe0 	ldr	x0, [sp, #24]
ffffffff80005c44:	b902d401 	str	w1, [x0, #724]
ffffffff80005c48:	d503201f 	nop
ffffffff80005c4c:	910083ff 	add	sp, sp, #0x20
ffffffff80005c50:	d65f03c0 	ret

ffffffff80005c54 <flanterm_fb_set_text_fg_bright>:
ffffffff80005c54:	d10083ff 	sub	sp, sp, #0x20
ffffffff80005c58:	f90007e0 	str	x0, [sp, #8]
ffffffff80005c5c:	f90003e1 	str	x1, [sp]
ffffffff80005c60:	f94007e0 	ldr	x0, [sp, #8]
ffffffff80005c64:	f9000fe0 	str	x0, [sp, #24]
ffffffff80005c68:	f9400fe1 	ldr	x1, [sp, #24]
ffffffff80005c6c:	f94003e0 	ldr	x0, [sp]
ffffffff80005c70:	91025000 	add	x0, x0, #0x94
ffffffff80005c74:	d37ef400 	lsl	x0, x0, #2
ffffffff80005c78:	8b000020 	add	x0, x1, x0
ffffffff80005c7c:	b9400801 	ldr	w1, [x0, #8]
ffffffff80005c80:	f9400fe0 	ldr	x0, [sp, #24]
ffffffff80005c84:	b902d001 	str	w1, [x0, #720]
ffffffff80005c88:	d503201f 	nop
ffffffff80005c8c:	910083ff 	add	sp, sp, #0x20
ffffffff80005c90:	d65f03c0 	ret

ffffffff80005c94 <flanterm_fb_set_text_bg_bright>:
ffffffff80005c94:	d10083ff 	sub	sp, sp, #0x20
ffffffff80005c98:	f90007e0 	str	x0, [sp, #8]
ffffffff80005c9c:	f90003e1 	str	x1, [sp]
ffffffff80005ca0:	f94007e0 	ldr	x0, [sp, #8]
ffffffff80005ca4:	f9000fe0 	str	x0, [sp, #24]
ffffffff80005ca8:	f9400fe1 	ldr	x1, [sp, #24]
ffffffff80005cac:	f94003e0 	ldr	x0, [sp]
ffffffff80005cb0:	91025000 	add	x0, x0, #0x94
ffffffff80005cb4:	d37ef400 	lsl	x0, x0, #2
ffffffff80005cb8:	8b000020 	add	x0, x1, x0
ffffffff80005cbc:	b9400801 	ldr	w1, [x0, #8]
ffffffff80005cc0:	f9400fe0 	ldr	x0, [sp, #24]
ffffffff80005cc4:	b902d401 	str	w1, [x0, #724]
ffffffff80005cc8:	d503201f 	nop
ffffffff80005ccc:	910083ff 	add	sp, sp, #0x20
ffffffff80005cd0:	d65f03c0 	ret

ffffffff80005cd4 <flanterm_fb_set_text_fg_rgb>:
ffffffff80005cd4:	d10083ff 	sub	sp, sp, #0x20
ffffffff80005cd8:	f90007e0 	str	x0, [sp, #8]
ffffffff80005cdc:	b90007e1 	str	w1, [sp, #4]
ffffffff80005ce0:	f94007e0 	ldr	x0, [sp, #8]
ffffffff80005ce4:	f9000fe0 	str	x0, [sp, #24]
ffffffff80005ce8:	f9400fe0 	ldr	x0, [sp, #24]
ffffffff80005cec:	b94007e1 	ldr	w1, [sp, #4]
ffffffff80005cf0:	b902d001 	str	w1, [x0, #720]
ffffffff80005cf4:	d503201f 	nop
ffffffff80005cf8:	910083ff 	add	sp, sp, #0x20
ffffffff80005cfc:	d65f03c0 	ret

ffffffff80005d00 <flanterm_fb_set_text_bg_rgb>:
ffffffff80005d00:	d10083ff 	sub	sp, sp, #0x20
ffffffff80005d04:	f90007e0 	str	x0, [sp, #8]
ffffffff80005d08:	b90007e1 	str	w1, [sp, #4]
ffffffff80005d0c:	f94007e0 	ldr	x0, [sp, #8]
ffffffff80005d10:	f9000fe0 	str	x0, [sp, #24]
ffffffff80005d14:	f9400fe0 	ldr	x0, [sp, #24]
ffffffff80005d18:	b94007e1 	ldr	w1, [sp, #4]
ffffffff80005d1c:	b902d401 	str	w1, [x0, #724]
ffffffff80005d20:	d503201f 	nop
ffffffff80005d24:	910083ff 	add	sp, sp, #0x20
ffffffff80005d28:	d65f03c0 	ret

ffffffff80005d2c <flanterm_fb_set_text_fg_default>:
ffffffff80005d2c:	d10083ff 	sub	sp, sp, #0x20
ffffffff80005d30:	f90007e0 	str	x0, [sp, #8]
ffffffff80005d34:	f94007e0 	ldr	x0, [sp, #8]
ffffffff80005d38:	f9000fe0 	str	x0, [sp, #24]
ffffffff80005d3c:	f9400fe0 	ldr	x0, [sp, #24]
ffffffff80005d40:	b9427801 	ldr	w1, [x0, #632]
ffffffff80005d44:	f9400fe0 	ldr	x0, [sp, #24]
ffffffff80005d48:	b902d001 	str	w1, [x0, #720]
ffffffff80005d4c:	d503201f 	nop
ffffffff80005d50:	910083ff 	add	sp, sp, #0x20
ffffffff80005d54:	d65f03c0 	ret

ffffffff80005d58 <flanterm_fb_set_text_bg_default>:
ffffffff80005d58:	d10083ff 	sub	sp, sp, #0x20
ffffffff80005d5c:	f90007e0 	str	x0, [sp, #8]
ffffffff80005d60:	f94007e0 	ldr	x0, [sp, #8]
ffffffff80005d64:	f9000fe0 	str	x0, [sp, #24]
ffffffff80005d68:	f9400fe0 	ldr	x0, [sp, #24]
ffffffff80005d6c:	12800001 	mov	w1, #0xffffffff            	// #-1
ffffffff80005d70:	b902d401 	str	w1, [x0, #724]
ffffffff80005d74:	d503201f 	nop
ffffffff80005d78:	910083ff 	add	sp, sp, #0x20
ffffffff80005d7c:	d65f03c0 	ret

ffffffff80005d80 <flanterm_fb_set_text_fg_default_bright>:
ffffffff80005d80:	d10083ff 	sub	sp, sp, #0x20
ffffffff80005d84:	f90007e0 	str	x0, [sp, #8]
ffffffff80005d88:	f94007e0 	ldr	x0, [sp, #8]
ffffffff80005d8c:	f9000fe0 	str	x0, [sp, #24]
ffffffff80005d90:	f9400fe0 	ldr	x0, [sp, #24]
ffffffff80005d94:	b9428001 	ldr	w1, [x0, #640]
ffffffff80005d98:	f9400fe0 	ldr	x0, [sp, #24]
ffffffff80005d9c:	b902d001 	str	w1, [x0, #720]
ffffffff80005da0:	d503201f 	nop
ffffffff80005da4:	910083ff 	add	sp, sp, #0x20
ffffffff80005da8:	d65f03c0 	ret

ffffffff80005dac <flanterm_fb_set_text_bg_default_bright>:
ffffffff80005dac:	d10083ff 	sub	sp, sp, #0x20
ffffffff80005db0:	f90007e0 	str	x0, [sp, #8]
ffffffff80005db4:	f94007e0 	ldr	x0, [sp, #8]
ffffffff80005db8:	f9000fe0 	str	x0, [sp, #24]
ffffffff80005dbc:	f9400fe0 	ldr	x0, [sp, #24]
ffffffff80005dc0:	b9428401 	ldr	w1, [x0, #644]
ffffffff80005dc4:	f9400fe0 	ldr	x0, [sp, #24]
ffffffff80005dc8:	b902d401 	str	w1, [x0, #724]
ffffffff80005dcc:	d503201f 	nop
ffffffff80005dd0:	910083ff 	add	sp, sp, #0x20
ffffffff80005dd4:	d65f03c0 	ret

ffffffff80005dd8 <draw_cursor>:
ffffffff80005dd8:	a9bb7bfd 	stp	x29, x30, [sp, #-80]!
ffffffff80005ddc:	910003fd 	mov	x29, sp
ffffffff80005de0:	f9000fe0 	str	x0, [sp, #24]
ffffffff80005de4:	f9400fe0 	ldr	x0, [sp, #24]
ffffffff80005de8:	f90027e0 	str	x0, [sp, #72]
ffffffff80005dec:	f94027e0 	ldr	x0, [sp, #72]
ffffffff80005df0:	f9416c01 	ldr	x1, [x0, #728]
ffffffff80005df4:	f9400fe0 	ldr	x0, [sp, #24]
ffffffff80005df8:	f9407400 	ldr	x0, [x0, #232]
ffffffff80005dfc:	eb00003f 	cmp	x1, x0
ffffffff80005e00:	54000b02 	b.cs	ffffffff80005f60 <draw_cursor+0x188>  // b.hs, b.nlast
ffffffff80005e04:	f94027e0 	ldr	x0, [sp, #72]
ffffffff80005e08:	f9417001 	ldr	x1, [x0, #736]
ffffffff80005e0c:	f9400fe0 	ldr	x0, [sp, #24]
ffffffff80005e10:	f9407000 	ldr	x0, [x0, #224]
ffffffff80005e14:	eb00003f 	cmp	x1, x0
ffffffff80005e18:	54000a42 	b.cs	ffffffff80005f60 <draw_cursor+0x188>  // b.hs, b.nlast
ffffffff80005e1c:	f94027e0 	ldr	x0, [sp, #72]
ffffffff80005e20:	f9416c01 	ldr	x1, [x0, #728]
ffffffff80005e24:	f94027e0 	ldr	x0, [sp, #72]
ffffffff80005e28:	f9417002 	ldr	x2, [x0, #736]
ffffffff80005e2c:	f9400fe0 	ldr	x0, [sp, #24]
ffffffff80005e30:	f9407400 	ldr	x0, [x0, #232]
ffffffff80005e34:	9b007c40 	mul	x0, x2, x0
ffffffff80005e38:	8b000020 	add	x0, x1, x0
ffffffff80005e3c:	f90023e0 	str	x0, [sp, #64]
ffffffff80005e40:	f94027e0 	ldr	x0, [sp, #72]
ffffffff80005e44:	f9416401 	ldr	x1, [x0, #712]
ffffffff80005e48:	f94023e0 	ldr	x0, [sp, #64]
ffffffff80005e4c:	d37df000 	lsl	x0, x0, #3
ffffffff80005e50:	8b000020 	add	x0, x1, x0
ffffffff80005e54:	f9400000 	ldr	x0, [x0]
ffffffff80005e58:	f9001fe0 	str	x0, [sp, #56]
ffffffff80005e5c:	f9401fe0 	ldr	x0, [sp, #56]
ffffffff80005e60:	f100001f 	cmp	x0, #0x0
ffffffff80005e64:	54000120 	b.eq	ffffffff80005e88 <draw_cursor+0xb0>  // b.none
ffffffff80005e68:	f9401fe0 	ldr	x0, [sp, #56]
ffffffff80005e6c:	91004001 	add	x1, x0, #0x10
ffffffff80005e70:	9100a3e0 	add	x0, sp, #0x28
ffffffff80005e74:	f9400022 	ldr	x2, [x1]
ffffffff80005e78:	f9000002 	str	x2, [x0]
ffffffff80005e7c:	b9400821 	ldr	w1, [x1, #8]
ffffffff80005e80:	b9000801 	str	w1, [x0, #8]
ffffffff80005e84:	1400000e 	b	ffffffff80005ebc <draw_cursor+0xe4>
ffffffff80005e88:	f94027e0 	ldr	x0, [sp, #72]
ffffffff80005e8c:	f9415802 	ldr	x2, [x0, #688]
ffffffff80005e90:	f94023e1 	ldr	x1, [sp, #64]
ffffffff80005e94:	aa0103e0 	mov	x0, x1
ffffffff80005e98:	d37ff800 	lsl	x0, x0, #1
ffffffff80005e9c:	8b010000 	add	x0, x0, x1
ffffffff80005ea0:	d37ef400 	lsl	x0, x0, #2
ffffffff80005ea4:	8b000041 	add	x1, x2, x0
ffffffff80005ea8:	9100a3e0 	add	x0, sp, #0x28
ffffffff80005eac:	f9400022 	ldr	x2, [x1]
ffffffff80005eb0:	f9000002 	str	x2, [x0]
ffffffff80005eb4:	b9400821 	ldr	w1, [x1, #8]
ffffffff80005eb8:	b9000801 	str	w1, [x0, #8]
ffffffff80005ebc:	b9402fe0 	ldr	w0, [sp, #44]
ffffffff80005ec0:	b90037e0 	str	w0, [sp, #52]
ffffffff80005ec4:	b94033e0 	ldr	w0, [sp, #48]
ffffffff80005ec8:	b9002fe0 	str	w0, [sp, #44]
ffffffff80005ecc:	b94037e0 	ldr	w0, [sp, #52]
ffffffff80005ed0:	b90033e0 	str	w0, [sp, #48]
ffffffff80005ed4:	f94027e0 	ldr	x0, [sp, #72]
ffffffff80005ed8:	f9416c01 	ldr	x1, [x0, #728]
ffffffff80005edc:	f94027e0 	ldr	x0, [sp, #72]
ffffffff80005ee0:	f9417002 	ldr	x2, [x0, #736]
ffffffff80005ee4:	9100a3e0 	add	x0, sp, #0x28
ffffffff80005ee8:	aa0203e3 	mov	x3, x2
ffffffff80005eec:	aa0103e2 	mov	x2, x1
ffffffff80005ef0:	aa0003e1 	mov	x1, x0
ffffffff80005ef4:	f9400fe0 	ldr	x0, [sp, #24]
ffffffff80005ef8:	97fffbc8 	bl	ffffffff80004e18 <plot_char>
ffffffff80005efc:	f9401fe0 	ldr	x0, [sp, #56]
ffffffff80005f00:	f100001f 	cmp	x0, #0x0
ffffffff80005f04:	54000300 	b.eq	ffffffff80005f64 <draw_cursor+0x18c>  // b.none
ffffffff80005f08:	f94027e0 	ldr	x0, [sp, #72]
ffffffff80005f0c:	f9415802 	ldr	x2, [x0, #688]
ffffffff80005f10:	f94023e1 	ldr	x1, [sp, #64]
ffffffff80005f14:	aa0103e0 	mov	x0, x1
ffffffff80005f18:	d37ff800 	lsl	x0, x0, #1
ffffffff80005f1c:	8b010000 	add	x0, x0, x1
ffffffff80005f20:	d37ef400 	lsl	x0, x0, #2
ffffffff80005f24:	8b000042 	add	x2, x2, x0
ffffffff80005f28:	f9401fe0 	ldr	x0, [sp, #56]
ffffffff80005f2c:	91004001 	add	x1, x0, #0x10
ffffffff80005f30:	aa0203e0 	mov	x0, x2
ffffffff80005f34:	f9400022 	ldr	x2, [x1]
ffffffff80005f38:	f9000002 	str	x2, [x0]
ffffffff80005f3c:	b9400821 	ldr	w1, [x1, #8]
ffffffff80005f40:	b9000801 	str	w1, [x0, #8]
ffffffff80005f44:	f94027e0 	ldr	x0, [sp, #72]
ffffffff80005f48:	f9416401 	ldr	x1, [x0, #712]
ffffffff80005f4c:	f94023e0 	ldr	x0, [sp, #64]
ffffffff80005f50:	d37df000 	lsl	x0, x0, #3
ffffffff80005f54:	8b000020 	add	x0, x1, x0
ffffffff80005f58:	f900001f 	str	xzr, [x0]
ffffffff80005f5c:	14000002 	b	ffffffff80005f64 <draw_cursor+0x18c>
ffffffff80005f60:	d503201f 	nop
ffffffff80005f64:	a8c57bfd 	ldp	x29, x30, [sp], #80
ffffffff80005f68:	d65f03c0 	ret

ffffffff80005f6c <flanterm_fb_double_buffer_flush>:
ffffffff80005f6c:	a9bb7bfd 	stp	x29, x30, [sp, #-80]!
ffffffff80005f70:	910003fd 	mov	x29, sp
ffffffff80005f74:	f9000fe0 	str	x0, [sp, #24]
ffffffff80005f78:	f9400fe0 	ldr	x0, [sp, #24]
ffffffff80005f7c:	f90023e0 	str	x0, [sp, #64]
ffffffff80005f80:	f9400fe0 	ldr	x0, [sp, #24]
ffffffff80005f84:	39402400 	ldrb	w0, [x0, #9]
ffffffff80005f88:	12000000 	and	w0, w0, #0x1
ffffffff80005f8c:	7100001f 	cmp	w0, #0x0
ffffffff80005f90:	54000060 	b.eq	ffffffff80005f9c <flanterm_fb_double_buffer_flush+0x30>  // b.none
ffffffff80005f94:	f9400fe0 	ldr	x0, [sp, #24]
ffffffff80005f98:	97ffff90 	bl	ffffffff80005dd8 <draw_cursor>
ffffffff80005f9c:	f90027ff 	str	xzr, [sp, #72]
ffffffff80005fa0:	1400005d 	b	ffffffff80006114 <flanterm_fb_double_buffer_flush+0x1a8>
ffffffff80005fa4:	f94023e0 	ldr	x0, [sp, #64]
ffffffff80005fa8:	f9415c01 	ldr	x1, [x0, #696]
ffffffff80005fac:	f94027e0 	ldr	x0, [sp, #72]
ffffffff80005fb0:	d37be800 	lsl	x0, x0, #5
ffffffff80005fb4:	8b000020 	add	x0, x1, x0
ffffffff80005fb8:	f9001fe0 	str	x0, [sp, #56]
ffffffff80005fbc:	f9401fe0 	ldr	x0, [sp, #56]
ffffffff80005fc0:	f9400401 	ldr	x1, [x0, #8]
ffffffff80005fc4:	f9400fe0 	ldr	x0, [sp, #24]
ffffffff80005fc8:	f9407400 	ldr	x0, [x0, #232]
ffffffff80005fcc:	9b007c21 	mul	x1, x1, x0
ffffffff80005fd0:	f9401fe0 	ldr	x0, [sp, #56]
ffffffff80005fd4:	f9400000 	ldr	x0, [x0]
ffffffff80005fd8:	8b000020 	add	x0, x1, x0
ffffffff80005fdc:	f9001be0 	str	x0, [sp, #48]
ffffffff80005fe0:	f94023e0 	ldr	x0, [sp, #64]
ffffffff80005fe4:	f9416401 	ldr	x1, [x0, #712]
ffffffff80005fe8:	f9401be0 	ldr	x0, [sp, #48]
ffffffff80005fec:	d37df000 	lsl	x0, x0, #3
ffffffff80005ff0:	8b000020 	add	x0, x1, x0
ffffffff80005ff4:	f9400000 	ldr	x0, [x0]
ffffffff80005ff8:	f100001f 	cmp	x0, #0x0
ffffffff80005ffc:	54000840 	b.eq	ffffffff80006104 <flanterm_fb_double_buffer_flush+0x198>  // b.none
ffffffff80006000:	f94023e0 	ldr	x0, [sp, #64]
ffffffff80006004:	f9415802 	ldr	x2, [x0, #688]
ffffffff80006008:	f9401be1 	ldr	x1, [sp, #48]
ffffffff8000600c:	aa0103e0 	mov	x0, x1
ffffffff80006010:	d37ff800 	lsl	x0, x0, #1
ffffffff80006014:	8b010000 	add	x0, x0, x1
ffffffff80006018:	d37ef400 	lsl	x0, x0, #2
ffffffff8000601c:	8b000040 	add	x0, x2, x0
ffffffff80006020:	f90017e0 	str	x0, [sp, #40]
ffffffff80006024:	f9401fe0 	ldr	x0, [sp, #56]
ffffffff80006028:	b9401801 	ldr	w1, [x0, #24]
ffffffff8000602c:	f94017e0 	ldr	x0, [sp, #40]
ffffffff80006030:	b9400800 	ldr	w0, [x0, #8]
ffffffff80006034:	6b00003f 	cmp	w1, w0
ffffffff80006038:	54000281 	b.ne	ffffffff80006088 <flanterm_fb_double_buffer_flush+0x11c>  // b.any
ffffffff8000603c:	f9401fe0 	ldr	x0, [sp, #56]
ffffffff80006040:	b9401401 	ldr	w1, [x0, #20]
ffffffff80006044:	f94017e0 	ldr	x0, [sp, #40]
ffffffff80006048:	b9400400 	ldr	w0, [x0, #4]
ffffffff8000604c:	6b00003f 	cmp	w1, w0
ffffffff80006050:	540001c1 	b.ne	ffffffff80006088 <flanterm_fb_double_buffer_flush+0x11c>  // b.any
ffffffff80006054:	f9401fe0 	ldr	x0, [sp, #56]
ffffffff80006058:	91004001 	add	x1, x0, #0x10
ffffffff8000605c:	f9401fe0 	ldr	x0, [sp, #56]
ffffffff80006060:	f9400002 	ldr	x2, [x0]
ffffffff80006064:	f9401fe0 	ldr	x0, [sp, #56]
ffffffff80006068:	f9400400 	ldr	x0, [x0, #8]
ffffffff8000606c:	aa0003e4 	mov	x4, x0
ffffffff80006070:	aa0203e3 	mov	x3, x2
ffffffff80006074:	aa0103e2 	mov	x2, x1
ffffffff80006078:	f94017e1 	ldr	x1, [sp, #40]
ffffffff8000607c:	f9400fe0 	ldr	x0, [sp, #24]
ffffffff80006080:	97fffc0d 	bl	ffffffff800050b4 <plot_char_fast>
ffffffff80006084:	1400000a 	b	ffffffff800060ac <flanterm_fb_double_buffer_flush+0x140>
ffffffff80006088:	f9401fe0 	ldr	x0, [sp, #56]
ffffffff8000608c:	91004001 	add	x1, x0, #0x10
ffffffff80006090:	f9401fe0 	ldr	x0, [sp, #56]
ffffffff80006094:	f9400002 	ldr	x2, [x0]
ffffffff80006098:	f9401fe0 	ldr	x0, [sp, #56]
ffffffff8000609c:	f9400400 	ldr	x0, [x0, #8]
ffffffff800060a0:	aa0003e3 	mov	x3, x0
ffffffff800060a4:	f9400fe0 	ldr	x0, [sp, #24]
ffffffff800060a8:	97fffb5c 	bl	ffffffff80004e18 <plot_char>
ffffffff800060ac:	f94023e0 	ldr	x0, [sp, #64]
ffffffff800060b0:	f9415802 	ldr	x2, [x0, #688]
ffffffff800060b4:	f9401be1 	ldr	x1, [sp, #48]
ffffffff800060b8:	aa0103e0 	mov	x0, x1
ffffffff800060bc:	d37ff800 	lsl	x0, x0, #1
ffffffff800060c0:	8b010000 	add	x0, x0, x1
ffffffff800060c4:	d37ef400 	lsl	x0, x0, #2
ffffffff800060c8:	8b000042 	add	x2, x2, x0
ffffffff800060cc:	f9401fe0 	ldr	x0, [sp, #56]
ffffffff800060d0:	91004001 	add	x1, x0, #0x10
ffffffff800060d4:	aa0203e0 	mov	x0, x2
ffffffff800060d8:	f9400022 	ldr	x2, [x1]
ffffffff800060dc:	f9000002 	str	x2, [x0]
ffffffff800060e0:	b9400821 	ldr	w1, [x1, #8]
ffffffff800060e4:	b9000801 	str	w1, [x0, #8]
ffffffff800060e8:	f94023e0 	ldr	x0, [sp, #64]
ffffffff800060ec:	f9416401 	ldr	x1, [x0, #712]
ffffffff800060f0:	f9401be0 	ldr	x0, [sp, #48]
ffffffff800060f4:	d37df000 	lsl	x0, x0, #3
ffffffff800060f8:	8b000020 	add	x0, x1, x0
ffffffff800060fc:	f900001f 	str	xzr, [x0]
ffffffff80006100:	14000002 	b	ffffffff80006108 <flanterm_fb_double_buffer_flush+0x19c>
ffffffff80006104:	d503201f 	nop
ffffffff80006108:	f94027e0 	ldr	x0, [sp, #72]
ffffffff8000610c:	91000400 	add	x0, x0, #0x1
ffffffff80006110:	f90027e0 	str	x0, [sp, #72]
ffffffff80006114:	f94023e0 	ldr	x0, [sp, #64]
ffffffff80006118:	f9416000 	ldr	x0, [x0, #704]
ffffffff8000611c:	f94027e1 	ldr	x1, [sp, #72]
ffffffff80006120:	eb00003f 	cmp	x1, x0
ffffffff80006124:	54fff403 	b.cc	ffffffff80005fa4 <flanterm_fb_double_buffer_flush+0x38>  // b.lo, b.ul, b.last
ffffffff80006128:	f94023e0 	ldr	x0, [sp, #64]
ffffffff8000612c:	f9418001 	ldr	x1, [x0, #768]
ffffffff80006130:	f94023e0 	ldr	x0, [sp, #64]
ffffffff80006134:	f9416c00 	ldr	x0, [x0, #728]
ffffffff80006138:	eb00003f 	cmp	x1, x0
ffffffff8000613c:	540001c1 	b.ne	ffffffff80006174 <flanterm_fb_double_buffer_flush+0x208>  // b.any
ffffffff80006140:	f94023e0 	ldr	x0, [sp, #64]
ffffffff80006144:	f9418401 	ldr	x1, [x0, #776]
ffffffff80006148:	f94023e0 	ldr	x0, [sp, #64]
ffffffff8000614c:	f9417000 	ldr	x0, [x0, #736]
ffffffff80006150:	eb00003f 	cmp	x1, x0
ffffffff80006154:	54000101 	b.ne	ffffffff80006174 <flanterm_fb_double_buffer_flush+0x208>  // b.any
ffffffff80006158:	f9400fe0 	ldr	x0, [sp, #24]
ffffffff8000615c:	39402400 	ldrb	w0, [x0, #9]
ffffffff80006160:	52000000 	eor	w0, w0, #0x1
ffffffff80006164:	12001c00 	and	w0, w0, #0xff
ffffffff80006168:	12000000 	and	w0, w0, #0x1
ffffffff8000616c:	7100001f 	cmp	w0, #0x0
ffffffff80006170:	54000460 	b.eq	ffffffff800061fc <flanterm_fb_double_buffer_flush+0x290>  // b.none
ffffffff80006174:	f94023e0 	ldr	x0, [sp, #64]
ffffffff80006178:	f9418001 	ldr	x1, [x0, #768]
ffffffff8000617c:	f9400fe0 	ldr	x0, [sp, #24]
ffffffff80006180:	f9407400 	ldr	x0, [x0, #232]
ffffffff80006184:	eb00003f 	cmp	x1, x0
ffffffff80006188:	540003a2 	b.cs	ffffffff800061fc <flanterm_fb_double_buffer_flush+0x290>  // b.hs, b.nlast
ffffffff8000618c:	f94023e0 	ldr	x0, [sp, #64]
ffffffff80006190:	f9418401 	ldr	x1, [x0, #776]
ffffffff80006194:	f9400fe0 	ldr	x0, [sp, #24]
ffffffff80006198:	f9407000 	ldr	x0, [x0, #224]
ffffffff8000619c:	eb00003f 	cmp	x1, x0
ffffffff800061a0:	540002e2 	b.cs	ffffffff800061fc <flanterm_fb_double_buffer_flush+0x290>  // b.hs, b.nlast
ffffffff800061a4:	f94023e0 	ldr	x0, [sp, #64]
ffffffff800061a8:	f9415802 	ldr	x2, [x0, #688]
ffffffff800061ac:	f94023e0 	ldr	x0, [sp, #64]
ffffffff800061b0:	f9418001 	ldr	x1, [x0, #768]
ffffffff800061b4:	f94023e0 	ldr	x0, [sp, #64]
ffffffff800061b8:	f9418403 	ldr	x3, [x0, #776]
ffffffff800061bc:	f9400fe0 	ldr	x0, [sp, #24]
ffffffff800061c0:	f9407400 	ldr	x0, [x0, #232]
ffffffff800061c4:	9b007c60 	mul	x0, x3, x0
ffffffff800061c8:	8b000021 	add	x1, x1, x0
ffffffff800061cc:	aa0103e0 	mov	x0, x1
ffffffff800061d0:	d37ff800 	lsl	x0, x0, #1
ffffffff800061d4:	8b010000 	add	x0, x0, x1
ffffffff800061d8:	d37ef400 	lsl	x0, x0, #2
ffffffff800061dc:	8b000041 	add	x1, x2, x0
ffffffff800061e0:	f94023e0 	ldr	x0, [sp, #64]
ffffffff800061e4:	f9418002 	ldr	x2, [x0, #768]
ffffffff800061e8:	f94023e0 	ldr	x0, [sp, #64]
ffffffff800061ec:	f9418400 	ldr	x0, [x0, #776]
ffffffff800061f0:	aa0003e3 	mov	x3, x0
ffffffff800061f4:	f9400fe0 	ldr	x0, [sp, #24]
ffffffff800061f8:	97fffb08 	bl	ffffffff80004e18 <plot_char>
ffffffff800061fc:	f94023e0 	ldr	x0, [sp, #64]
ffffffff80006200:	f9416c01 	ldr	x1, [x0, #728]
ffffffff80006204:	f94023e0 	ldr	x0, [sp, #64]
ffffffff80006208:	f9018001 	str	x1, [x0, #768]
ffffffff8000620c:	f94023e0 	ldr	x0, [sp, #64]
ffffffff80006210:	f9417001 	ldr	x1, [x0, #736]
ffffffff80006214:	f94023e0 	ldr	x0, [sp, #64]
ffffffff80006218:	f9018401 	str	x1, [x0, #776]
ffffffff8000621c:	f94023e0 	ldr	x0, [sp, #64]
ffffffff80006220:	f901601f 	str	xzr, [x0, #704]
ffffffff80006224:	d503201f 	nop
ffffffff80006228:	a8c57bfd 	ldp	x29, x30, [sp], #80
ffffffff8000622c:	d65f03c0 	ret

ffffffff80006230 <flanterm_fb_raw_putchar>:
ffffffff80006230:	a9bc7bfd 	stp	x29, x30, [sp, #-64]!
ffffffff80006234:	910003fd 	mov	x29, sp
ffffffff80006238:	f9000fe0 	str	x0, [sp, #24]
ffffffff8000623c:	39005fe1 	strb	w1, [sp, #23]
ffffffff80006240:	f9400fe0 	ldr	x0, [sp, #24]
ffffffff80006244:	f9001fe0 	str	x0, [sp, #56]
ffffffff80006248:	f9401fe0 	ldr	x0, [sp, #56]
ffffffff8000624c:	f9416c01 	ldr	x1, [x0, #728]
ffffffff80006250:	f9400fe0 	ldr	x0, [sp, #24]
ffffffff80006254:	f9407400 	ldr	x0, [x0, #232]
ffffffff80006258:	eb00003f 	cmp	x1, x0
ffffffff8000625c:	54000583 	b.cc	ffffffff8000630c <flanterm_fb_raw_putchar+0xdc>  // b.lo, b.ul, b.last
ffffffff80006260:	f9401fe0 	ldr	x0, [sp, #56]
ffffffff80006264:	f9417001 	ldr	x1, [x0, #736]
ffffffff80006268:	f9400fe0 	ldr	x0, [sp, #24]
ffffffff8000626c:	f9403800 	ldr	x0, [x0, #112]
ffffffff80006270:	d1000400 	sub	x0, x0, #0x1
ffffffff80006274:	eb00003f 	cmp	x1, x0
ffffffff80006278:	540000c3 	b.cc	ffffffff80006290 <flanterm_fb_raw_putchar+0x60>  // b.lo, b.ul, b.last
ffffffff8000627c:	f9400fe0 	ldr	x0, [sp, #24]
ffffffff80006280:	39402800 	ldrb	w0, [x0, #10]
ffffffff80006284:	12000000 	and	w0, w0, #0x1
ffffffff80006288:	7100001f 	cmp	w0, #0x0
ffffffff8000628c:	54000400 	b.eq	ffffffff8000630c <flanterm_fb_raw_putchar+0xdc>  // b.none
ffffffff80006290:	f9401fe0 	ldr	x0, [sp, #56]
ffffffff80006294:	f9016c1f 	str	xzr, [x0, #728]
ffffffff80006298:	f9401fe0 	ldr	x0, [sp, #56]
ffffffff8000629c:	f9417000 	ldr	x0, [x0, #736]
ffffffff800062a0:	91000401 	add	x1, x0, #0x1
ffffffff800062a4:	f9401fe0 	ldr	x0, [sp, #56]
ffffffff800062a8:	f9017001 	str	x1, [x0, #736]
ffffffff800062ac:	f9401fe0 	ldr	x0, [sp, #56]
ffffffff800062b0:	f9417001 	ldr	x1, [x0, #736]
ffffffff800062b4:	f9400fe0 	ldr	x0, [sp, #24]
ffffffff800062b8:	f9403800 	ldr	x0, [x0, #112]
ffffffff800062bc:	eb00003f 	cmp	x1, x0
ffffffff800062c0:	54000101 	b.ne	ffffffff800062e0 <flanterm_fb_raw_putchar+0xb0>  // b.any
ffffffff800062c4:	f9401fe0 	ldr	x0, [sp, #56]
ffffffff800062c8:	f9417000 	ldr	x0, [x0, #736]
ffffffff800062cc:	d1000401 	sub	x1, x0, #0x1
ffffffff800062d0:	f9401fe0 	ldr	x0, [sp, #56]
ffffffff800062d4:	f9017001 	str	x1, [x0, #736]
ffffffff800062d8:	f9400fe0 	ldr	x0, [sp, #24]
ffffffff800062dc:	97fffd13 	bl	ffffffff80005728 <flanterm_fb_scroll>
ffffffff800062e0:	f9401fe0 	ldr	x0, [sp, #56]
ffffffff800062e4:	f9417001 	ldr	x1, [x0, #736]
ffffffff800062e8:	f9400fe0 	ldr	x0, [sp, #24]
ffffffff800062ec:	f9407400 	ldr	x0, [x0, #232]
ffffffff800062f0:	eb00003f 	cmp	x1, x0
ffffffff800062f4:	540000c3 	b.cc	ffffffff8000630c <flanterm_fb_raw_putchar+0xdc>  // b.lo, b.ul, b.last
ffffffff800062f8:	f9400fe0 	ldr	x0, [sp, #24]
ffffffff800062fc:	f9407400 	ldr	x0, [x0, #232]
ffffffff80006300:	d1000401 	sub	x1, x0, #0x1
ffffffff80006304:	f9401fe0 	ldr	x0, [sp, #56]
ffffffff80006308:	f9017001 	str	x1, [x0, #736]
ffffffff8000630c:	39405fe0 	ldrb	w0, [sp, #23]
ffffffff80006310:	b9002be0 	str	w0, [sp, #40]
ffffffff80006314:	f9401fe0 	ldr	x0, [sp, #56]
ffffffff80006318:	b942d000 	ldr	w0, [x0, #720]
ffffffff8000631c:	b9002fe0 	str	w0, [sp, #44]
ffffffff80006320:	f9401fe0 	ldr	x0, [sp, #56]
ffffffff80006324:	b942d400 	ldr	w0, [x0, #724]
ffffffff80006328:	b90033e0 	str	w0, [sp, #48]
ffffffff8000632c:	f9401fe0 	ldr	x0, [sp, #56]
ffffffff80006330:	f9416c00 	ldr	x0, [x0, #728]
ffffffff80006334:	91000402 	add	x2, x0, #0x1
ffffffff80006338:	f9401fe1 	ldr	x1, [sp, #56]
ffffffff8000633c:	f9016c22 	str	x2, [x1, #728]
ffffffff80006340:	f9401fe1 	ldr	x1, [sp, #56]
ffffffff80006344:	f9417022 	ldr	x2, [x1, #736]
ffffffff80006348:	9100a3e1 	add	x1, sp, #0x28
ffffffff8000634c:	aa0203e3 	mov	x3, x2
ffffffff80006350:	aa0003e2 	mov	x2, x0
ffffffff80006354:	f9400fe0 	ldr	x0, [sp, #24]
ffffffff80006358:	97fffc38 	bl	ffffffff80005438 <push_to_queue>
ffffffff8000635c:	d503201f 	nop
ffffffff80006360:	a8c47bfd 	ldp	x29, x30, [sp], #64
ffffffff80006364:	d65f03c0 	ret

ffffffff80006368 <flanterm_fb_full_refresh>:
ffffffff80006368:	a9bb7bfd 	stp	x29, x30, [sp, #-80]!
ffffffff8000636c:	910003fd 	mov	x29, sp
ffffffff80006370:	f9000fe0 	str	x0, [sp, #24]
ffffffff80006374:	f9400fe0 	ldr	x0, [sp, #24]
ffffffff80006378:	f9001be0 	str	x0, [sp, #48]
ffffffff8000637c:	f90027ff 	str	xzr, [sp, #72]
ffffffff80006380:	14000025 	b	ffffffff80006414 <flanterm_fb_full_refresh+0xac>
ffffffff80006384:	f90023ff 	str	xzr, [sp, #64]
ffffffff80006388:	1400001b 	b	ffffffff800063f4 <flanterm_fb_full_refresh+0x8c>
ffffffff8000638c:	f9401be0 	ldr	x0, [sp, #48]
ffffffff80006390:	f9414801 	ldr	x1, [x0, #656]
ffffffff80006394:	f9401be0 	ldr	x0, [sp, #48]
ffffffff80006398:	f9410002 	ldr	x2, [x0, #512]
ffffffff8000639c:	f94027e0 	ldr	x0, [sp, #72]
ffffffff800063a0:	9b007c42 	mul	x2, x2, x0
ffffffff800063a4:	f94023e0 	ldr	x0, [sp, #64]
ffffffff800063a8:	8b000040 	add	x0, x2, x0
ffffffff800063ac:	d37ef400 	lsl	x0, x0, #2
ffffffff800063b0:	8b000021 	add	x1, x1, x0
ffffffff800063b4:	f9401be0 	ldr	x0, [sp, #48]
ffffffff800063b8:	f940f802 	ldr	x2, [x0, #496]
ffffffff800063bc:	f9401be0 	ldr	x0, [sp, #48]
ffffffff800063c0:	f940fc00 	ldr	x0, [x0, #504]
ffffffff800063c4:	d342fc03 	lsr	x3, x0, #2
ffffffff800063c8:	f94027e0 	ldr	x0, [sp, #72]
ffffffff800063cc:	9b007c63 	mul	x3, x3, x0
ffffffff800063d0:	f94023e0 	ldr	x0, [sp, #64]
ffffffff800063d4:	8b000060 	add	x0, x3, x0
ffffffff800063d8:	d37ef400 	lsl	x0, x0, #2
ffffffff800063dc:	8b000040 	add	x0, x2, x0
ffffffff800063e0:	b9400021 	ldr	w1, [x1]
ffffffff800063e4:	b9000001 	str	w1, [x0]
ffffffff800063e8:	f94023e0 	ldr	x0, [sp, #64]
ffffffff800063ec:	91000400 	add	x0, x0, #0x1
ffffffff800063f0:	f90023e0 	str	x0, [sp, #64]
ffffffff800063f4:	f9401be0 	ldr	x0, [sp, #48]
ffffffff800063f8:	f9410000 	ldr	x0, [x0, #512]
ffffffff800063fc:	f94023e1 	ldr	x1, [sp, #64]
ffffffff80006400:	eb00003f 	cmp	x1, x0
ffffffff80006404:	54fffc43 	b.cc	ffffffff8000638c <flanterm_fb_full_refresh+0x24>  // b.lo, b.ul, b.last
ffffffff80006408:	f94027e0 	ldr	x0, [sp, #72]
ffffffff8000640c:	91000400 	add	x0, x0, #0x1
ffffffff80006410:	f90027e0 	str	x0, [sp, #72]
ffffffff80006414:	f9401be0 	ldr	x0, [sp, #48]
ffffffff80006418:	f9410400 	ldr	x0, [x0, #520]
ffffffff8000641c:	f94027e1 	ldr	x1, [sp, #72]
ffffffff80006420:	eb00003f 	cmp	x1, x0
ffffffff80006424:	54fffb03 	b.cc	ffffffff80006384 <flanterm_fb_full_refresh+0x1c>  // b.lo, b.ul, b.last
ffffffff80006428:	f9001fff 	str	xzr, [sp, #56]
ffffffff8000642c:	1400001d 	b	ffffffff800064a0 <flanterm_fb_full_refresh+0x138>
ffffffff80006430:	f9400fe0 	ldr	x0, [sp, #24]
ffffffff80006434:	f9407401 	ldr	x1, [x0, #232]
ffffffff80006438:	f9401fe0 	ldr	x0, [sp, #56]
ffffffff8000643c:	9ac10802 	udiv	x2, x0, x1
ffffffff80006440:	9b017c41 	mul	x1, x2, x1
ffffffff80006444:	cb010000 	sub	x0, x0, x1
ffffffff80006448:	f90017e0 	str	x0, [sp, #40]
ffffffff8000644c:	f9400fe0 	ldr	x0, [sp, #24]
ffffffff80006450:	f9407400 	ldr	x0, [x0, #232]
ffffffff80006454:	f9401fe1 	ldr	x1, [sp, #56]
ffffffff80006458:	9ac00820 	udiv	x0, x1, x0
ffffffff8000645c:	f90013e0 	str	x0, [sp, #32]
ffffffff80006460:	f9401be0 	ldr	x0, [sp, #48]
ffffffff80006464:	f9415802 	ldr	x2, [x0, #688]
ffffffff80006468:	f9401fe1 	ldr	x1, [sp, #56]
ffffffff8000646c:	aa0103e0 	mov	x0, x1
ffffffff80006470:	d37ff800 	lsl	x0, x0, #1
ffffffff80006474:	8b010000 	add	x0, x0, x1
ffffffff80006478:	d37ef400 	lsl	x0, x0, #2
ffffffff8000647c:	8b000040 	add	x0, x2, x0
ffffffff80006480:	f94013e3 	ldr	x3, [sp, #32]
ffffffff80006484:	f94017e2 	ldr	x2, [sp, #40]
ffffffff80006488:	aa0003e1 	mov	x1, x0
ffffffff8000648c:	f9400fe0 	ldr	x0, [sp, #24]
ffffffff80006490:	97fffa62 	bl	ffffffff80004e18 <plot_char>
ffffffff80006494:	f9401fe0 	ldr	x0, [sp, #56]
ffffffff80006498:	91000400 	add	x0, x0, #0x1
ffffffff8000649c:	f9001fe0 	str	x0, [sp, #56]
ffffffff800064a0:	f9400fe0 	ldr	x0, [sp, #24]
ffffffff800064a4:	f9407001 	ldr	x1, [x0, #224]
ffffffff800064a8:	f9400fe0 	ldr	x0, [sp, #24]
ffffffff800064ac:	f9407400 	ldr	x0, [x0, #232]
ffffffff800064b0:	9b007c20 	mul	x0, x1, x0
ffffffff800064b4:	f9401fe1 	ldr	x1, [sp, #56]
ffffffff800064b8:	eb00003f 	cmp	x1, x0
ffffffff800064bc:	54fffba3 	b.cc	ffffffff80006430 <flanterm_fb_full_refresh+0xc8>  // b.lo, b.ul, b.last
ffffffff800064c0:	f9400fe0 	ldr	x0, [sp, #24]
ffffffff800064c4:	39402400 	ldrb	w0, [x0, #9]
ffffffff800064c8:	12000000 	and	w0, w0, #0x1
ffffffff800064cc:	7100001f 	cmp	w0, #0x0
ffffffff800064d0:	54000060 	b.eq	ffffffff800064dc <flanterm_fb_full_refresh+0x174>  // b.none
ffffffff800064d4:	f9400fe0 	ldr	x0, [sp, #24]
ffffffff800064d8:	97fffe40 	bl	ffffffff80005dd8 <draw_cursor>
ffffffff800064dc:	d503201f 	nop
ffffffff800064e0:	a8c57bfd 	ldp	x29, x30, [sp], #80
ffffffff800064e4:	d65f03c0 	ret

ffffffff800064e8 <flanterm_fb_deinit>:
ffffffff800064e8:	a9bd7bfd 	stp	x29, x30, [sp, #-48]!
ffffffff800064ec:	910003fd 	mov	x29, sp
ffffffff800064f0:	f9000fe0 	str	x0, [sp, #24]
ffffffff800064f4:	f9000be1 	str	x1, [sp, #16]
ffffffff800064f8:	f9400fe0 	ldr	x0, [sp, #24]
ffffffff800064fc:	f90017e0 	str	x0, [sp, #40]
ffffffff80006500:	f9400be0 	ldr	x0, [sp, #16]
ffffffff80006504:	f100001f 	cmp	x0, #0x0
ffffffff80006508:	540006c0 	b.eq	ffffffff800065e0 <flanterm_fb_deinit+0xf8>  // b.none
ffffffff8000650c:	f94017e0 	ldr	x0, [sp, #40]
ffffffff80006510:	f9411003 	ldr	x3, [x0, #544]
ffffffff80006514:	f94017e0 	ldr	x0, [sp, #40]
ffffffff80006518:	f9410c00 	ldr	x0, [x0, #536]
ffffffff8000651c:	f9400be2 	ldr	x2, [sp, #16]
ffffffff80006520:	aa0003e1 	mov	x1, x0
ffffffff80006524:	aa0303e0 	mov	x0, x3
ffffffff80006528:	d63f0040 	blr	x2
ffffffff8000652c:	f94017e0 	ldr	x0, [sp, #40]
ffffffff80006530:	f9411803 	ldr	x3, [x0, #560]
ffffffff80006534:	f94017e0 	ldr	x0, [sp, #40]
ffffffff80006538:	f9411400 	ldr	x0, [x0, #552]
ffffffff8000653c:	f9400be2 	ldr	x2, [sp, #16]
ffffffff80006540:	aa0003e1 	mov	x1, x0
ffffffff80006544:	aa0303e0 	mov	x0, x3
ffffffff80006548:	d63f0040 	blr	x2
ffffffff8000654c:	f94017e0 	ldr	x0, [sp, #40]
ffffffff80006550:	f9415803 	ldr	x3, [x0, #688]
ffffffff80006554:	f94017e0 	ldr	x0, [sp, #40]
ffffffff80006558:	f9414c00 	ldr	x0, [x0, #664]
ffffffff8000655c:	f9400be2 	ldr	x2, [sp, #16]
ffffffff80006560:	aa0003e1 	mov	x1, x0
ffffffff80006564:	aa0303e0 	mov	x0, x3
ffffffff80006568:	d63f0040 	blr	x2
ffffffff8000656c:	f94017e0 	ldr	x0, [sp, #40]
ffffffff80006570:	f9415c03 	ldr	x3, [x0, #696]
ffffffff80006574:	f94017e0 	ldr	x0, [sp, #40]
ffffffff80006578:	f9415000 	ldr	x0, [x0, #672]
ffffffff8000657c:	f9400be2 	ldr	x2, [sp, #16]
ffffffff80006580:	aa0003e1 	mov	x1, x0
ffffffff80006584:	aa0303e0 	mov	x0, x3
ffffffff80006588:	d63f0040 	blr	x2
ffffffff8000658c:	f94017e0 	ldr	x0, [sp, #40]
ffffffff80006590:	f9416403 	ldr	x3, [x0, #712]
ffffffff80006594:	f94017e0 	ldr	x0, [sp, #40]
ffffffff80006598:	f9415400 	ldr	x0, [x0, #680]
ffffffff8000659c:	f9400be2 	ldr	x2, [sp, #16]
ffffffff800065a0:	aa0003e1 	mov	x1, x0
ffffffff800065a4:	aa0303e0 	mov	x0, x3
ffffffff800065a8:	d63f0040 	blr	x2
ffffffff800065ac:	f94017e0 	ldr	x0, [sp, #40]
ffffffff800065b0:	f9414803 	ldr	x3, [x0, #656]
ffffffff800065b4:	f94017e0 	ldr	x0, [sp, #40]
ffffffff800065b8:	f9414400 	ldr	x0, [x0, #648]
ffffffff800065bc:	f9400be2 	ldr	x2, [sp, #16]
ffffffff800065c0:	aa0003e1 	mov	x1, x0
ffffffff800065c4:	aa0303e0 	mov	x0, x3
ffffffff800065c8:	d63f0040 	blr	x2
ffffffff800065cc:	f9400be2 	ldr	x2, [sp, #16]
ffffffff800065d0:	d2806201 	mov	x1, #0x310                 	// #784
ffffffff800065d4:	f94017e0 	ldr	x0, [sp, #40]
ffffffff800065d8:	d63f0040 	blr	x2
ffffffff800065dc:	14000002 	b	ffffffff800065e4 <flanterm_fb_deinit+0xfc>
ffffffff800065e0:	d503201f 	nop
ffffffff800065e4:	a8c37bfd 	ldp	x29, x30, [sp], #48
ffffffff800065e8:	d65f03c0 	ret

ffffffff800065ec <flanterm_fb_init>:
ffffffff800065ec:	a9b37bfd 	stp	x29, x30, [sp, #-208]!
ffffffff800065f0:	910003fd 	mov	x29, sp
ffffffff800065f4:	f90027e0 	str	x0, [sp, #72]
ffffffff800065f8:	f90023e1 	str	x1, [sp, #64]
ffffffff800065fc:	f9001fe2 	str	x2, [sp, #56]
ffffffff80006600:	f9001be3 	str	x3, [sp, #48]
ffffffff80006604:	f90017e4 	str	x4, [sp, #40]
ffffffff80006608:	f90013e5 	str	x5, [sp, #32]
ffffffff8000660c:	f9000fe6 	str	x6, [sp, #24]
ffffffff80006610:	f9000be7 	str	x7, [sp, #16]
ffffffff80006614:	90020120 	adrp	x0, ffffffff8402a000 <bump_alloc_pool+0x3fff898>
ffffffff80006618:	911da000 	add	x0, x0, #0x768
ffffffff8000661c:	f9400000 	ldr	x0, [x0]
ffffffff80006620:	f90043e0 	str	x0, [sp, #128]
ffffffff80006624:	f94027e0 	ldr	x0, [sp, #72]
ffffffff80006628:	f100001f 	cmp	x0, #0x0
ffffffff8000662c:	54000081 	b.ne	ffffffff8000663c <flanterm_fb_init+0x50>  // b.any
ffffffff80006630:	d0ffffe0 	adrp	x0, ffffffff80004000 <unicode_to_cp437+0x360>
ffffffff80006634:	9132b000 	add	x0, x0, #0xcac
ffffffff80006638:	f90027e0 	str	x0, [sp, #72]
ffffffff8000663c:	f9003fff 	str	xzr, [sp, #120]
ffffffff80006640:	f94027e1 	ldr	x1, [sp, #72]
ffffffff80006644:	d2806200 	mov	x0, #0x310                 	// #784
ffffffff80006648:	d63f0020 	blr	x1
ffffffff8000664c:	f9003fe0 	str	x0, [sp, #120]
ffffffff80006650:	f9403fe0 	ldr	x0, [sp, #120]
ffffffff80006654:	f100001f 	cmp	x0, #0x0
ffffffff80006658:	54005ce0 	b.eq	ffffffff800071f4 <flanterm_fb_init+0xc08>  // b.none
ffffffff8000665c:	f9403fe0 	ldr	x0, [sp, #120]
ffffffff80006660:	f9003be0 	str	x0, [sp, #112]
ffffffff80006664:	d2806202 	mov	x2, #0x310                 	// #784
ffffffff80006668:	52800001 	mov	w1, #0x0                   	// #0
ffffffff8000666c:	f9403fe0 	ldr	x0, [sp, #120]
ffffffff80006670:	97ffe680 	bl	ffffffff80000070 <memset>
ffffffff80006674:	f9400be0 	ldr	x0, [sp, #16]
ffffffff80006678:	f100001f 	cmp	x0, #0x0
ffffffff8000667c:	540002a0 	b.eq	ffffffff800066d0 <flanterm_fb_init+0xe4>  // b.none
ffffffff80006680:	f90067ff 	str	xzr, [sp, #200]
ffffffff80006684:	1400000f 	b	ffffffff800066c0 <flanterm_fb_init+0xd4>
ffffffff80006688:	f94067e0 	ldr	x0, [sp, #200]
ffffffff8000668c:	d37ef400 	lsl	x0, x0, #2
ffffffff80006690:	f9400be1 	ldr	x1, [sp, #16]
ffffffff80006694:	8b000020 	add	x0, x1, x0
ffffffff80006698:	b9400001 	ldr	w1, [x0]
ffffffff8000669c:	f9403fe2 	ldr	x2, [sp, #120]
ffffffff800066a0:	f94067e0 	ldr	x0, [sp, #200]
ffffffff800066a4:	91023000 	add	x0, x0, #0x8c
ffffffff800066a8:	d37ef400 	lsl	x0, x0, #2
ffffffff800066ac:	8b000040 	add	x0, x2, x0
ffffffff800066b0:	b9000801 	str	w1, [x0, #8]
ffffffff800066b4:	f94067e0 	ldr	x0, [sp, #200]
ffffffff800066b8:	91000400 	add	x0, x0, #0x1
ffffffff800066bc:	f90067e0 	str	x0, [sp, #200]
ffffffff800066c0:	f94067e0 	ldr	x0, [sp, #200]
ffffffff800066c4:	f1001c1f 	cmp	x0, #0x7
ffffffff800066c8:	54fffe09 	b.ls	ffffffff80006688 <flanterm_fb_init+0x9c>  // b.plast
ffffffff800066cc:	1400001b 	b	ffffffff80006738 <flanterm_fb_init+0x14c>
ffffffff800066d0:	f9403fe0 	ldr	x0, [sp, #120]
ffffffff800066d4:	b902381f 	str	wzr, [x0, #568]
ffffffff800066d8:	f9403fe0 	ldr	x0, [sp, #120]
ffffffff800066dc:	52a01541 	mov	w1, #0xaa0000              	// #11141120
ffffffff800066e0:	b9023c01 	str	w1, [x0, #572]
ffffffff800066e4:	f9403fe0 	ldr	x0, [sp, #120]
ffffffff800066e8:	52954001 	mov	w1, #0xaa00                	// #43520
ffffffff800066ec:	b9024001 	str	w1, [x0, #576]
ffffffff800066f0:	f9403fe0 	ldr	x0, [sp, #120]
ffffffff800066f4:	528aa001 	mov	w1, #0x5500                	// #21760
ffffffff800066f8:	72a01541 	movk	w1, #0xaa, lsl #16
ffffffff800066fc:	b9024401 	str	w1, [x0, #580]
ffffffff80006700:	f9403fe0 	ldr	x0, [sp, #120]
ffffffff80006704:	52801541 	mov	w1, #0xaa                  	// #170
ffffffff80006708:	b9024801 	str	w1, [x0, #584]
ffffffff8000670c:	f9403fe0 	ldr	x0, [sp, #120]
ffffffff80006710:	52801541 	mov	w1, #0xaa                  	// #170
ffffffff80006714:	72a01541 	movk	w1, #0xaa, lsl #16
ffffffff80006718:	b9024c01 	str	w1, [x0, #588]
ffffffff8000671c:	f9403fe0 	ldr	x0, [sp, #120]
ffffffff80006720:	52955541 	mov	w1, #0xaaaa                	// #43690
ffffffff80006724:	b9025001 	str	w1, [x0, #592]
ffffffff80006728:	f9403fe0 	ldr	x0, [sp, #120]
ffffffff8000672c:	52955541 	mov	w1, #0xaaaa                	// #43690
ffffffff80006730:	72a01541 	movk	w1, #0xaa, lsl #16
ffffffff80006734:	b9025401 	str	w1, [x0, #596]
ffffffff80006738:	f9406be0 	ldr	x0, [sp, #208]
ffffffff8000673c:	f100001f 	cmp	x0, #0x0
ffffffff80006740:	540002a0 	b.eq	ffffffff80006794 <flanterm_fb_init+0x1a8>  // b.none
ffffffff80006744:	f90063ff 	str	xzr, [sp, #192]
ffffffff80006748:	1400000f 	b	ffffffff80006784 <flanterm_fb_init+0x198>
ffffffff8000674c:	f94063e0 	ldr	x0, [sp, #192]
ffffffff80006750:	d37ef400 	lsl	x0, x0, #2
ffffffff80006754:	f9406be1 	ldr	x1, [sp, #208]
ffffffff80006758:	8b000020 	add	x0, x1, x0
ffffffff8000675c:	b9400001 	ldr	w1, [x0]
ffffffff80006760:	f9403fe2 	ldr	x2, [sp, #120]
ffffffff80006764:	f94063e0 	ldr	x0, [sp, #192]
ffffffff80006768:	91025000 	add	x0, x0, #0x94
ffffffff8000676c:	d37ef400 	lsl	x0, x0, #2
ffffffff80006770:	8b000040 	add	x0, x2, x0
ffffffff80006774:	b9000801 	str	w1, [x0, #8]
ffffffff80006778:	f94063e0 	ldr	x0, [sp, #192]
ffffffff8000677c:	91000400 	add	x0, x0, #0x1
ffffffff80006780:	f90063e0 	str	x0, [sp, #192]
ffffffff80006784:	f94063e0 	ldr	x0, [sp, #192]
ffffffff80006788:	f1001c1f 	cmp	x0, #0x7
ffffffff8000678c:	54fffe09 	b.ls	ffffffff8000674c <flanterm_fb_init+0x160>  // b.plast
ffffffff80006790:	1400001f 	b	ffffffff8000680c <flanterm_fb_init+0x220>
ffffffff80006794:	f9403fe0 	ldr	x0, [sp, #120]
ffffffff80006798:	528aaaa1 	mov	w1, #0x5555                	// #21845
ffffffff8000679c:	72a00aa1 	movk	w1, #0x55, lsl #16
ffffffff800067a0:	b9025801 	str	w1, [x0, #600]
ffffffff800067a4:	f9403fe0 	ldr	x0, [sp, #120]
ffffffff800067a8:	528aaaa1 	mov	w1, #0x5555                	// #21845
ffffffff800067ac:	72a01fe1 	movk	w1, #0xff, lsl #16
ffffffff800067b0:	b9025c01 	str	w1, [x0, #604]
ffffffff800067b4:	f9403fe0 	ldr	x0, [sp, #120]
ffffffff800067b8:	529feaa1 	mov	w1, #0xff55                	// #65365
ffffffff800067bc:	72a00aa1 	movk	w1, #0x55, lsl #16
ffffffff800067c0:	b9026001 	str	w1, [x0, #608]
ffffffff800067c4:	f9403fe0 	ldr	x0, [sp, #120]
ffffffff800067c8:	529feaa1 	mov	w1, #0xff55                	// #65365
ffffffff800067cc:	72a01fe1 	movk	w1, #0xff, lsl #16
ffffffff800067d0:	b9026401 	str	w1, [x0, #612]
ffffffff800067d4:	f9403fe0 	ldr	x0, [sp, #120]
ffffffff800067d8:	528abfe1 	mov	w1, #0x55ff                	// #22015
ffffffff800067dc:	72a00aa1 	movk	w1, #0x55, lsl #16
ffffffff800067e0:	b9026801 	str	w1, [x0, #616]
ffffffff800067e4:	f9403fe0 	ldr	x0, [sp, #120]
ffffffff800067e8:	528abfe1 	mov	w1, #0x55ff                	// #22015
ffffffff800067ec:	72a01fe1 	movk	w1, #0xff, lsl #16
ffffffff800067f0:	b9026c01 	str	w1, [x0, #620]
ffffffff800067f4:	f9403fe0 	ldr	x0, [sp, #120]
ffffffff800067f8:	12bff541 	mov	w1, #0x55ffff              	// #5636095
ffffffff800067fc:	b9027001 	str	w1, [x0, #624]
ffffffff80006800:	f9403fe0 	ldr	x0, [sp, #120]
ffffffff80006804:	12bfe001 	mov	w1, #0xffffff              	// #16777215
ffffffff80006808:	b9027401 	str	w1, [x0, #628]
ffffffff8000680c:	f9406fe0 	ldr	x0, [sp, #216]
ffffffff80006810:	f100001f 	cmp	x0, #0x0
ffffffff80006814:	540000c0 	b.eq	ffffffff8000682c <flanterm_fb_init+0x240>  // b.none
ffffffff80006818:	f9406fe0 	ldr	x0, [sp, #216]
ffffffff8000681c:	b9400001 	ldr	w1, [x0]
ffffffff80006820:	f9403fe0 	ldr	x0, [sp, #120]
ffffffff80006824:	b9027c01 	str	w1, [x0, #636]
ffffffff80006828:	14000003 	b	ffffffff80006834 <flanterm_fb_init+0x248>
ffffffff8000682c:	f9403fe0 	ldr	x0, [sp, #120]
ffffffff80006830:	b9027c1f 	str	wzr, [x0, #636]
ffffffff80006834:	f94073e0 	ldr	x0, [sp, #224]
ffffffff80006838:	f100001f 	cmp	x0, #0x0
ffffffff8000683c:	540000c0 	b.eq	ffffffff80006854 <flanterm_fb_init+0x268>  // b.none
ffffffff80006840:	f94073e0 	ldr	x0, [sp, #224]
ffffffff80006844:	b9400001 	ldr	w1, [x0]
ffffffff80006848:	f9403fe0 	ldr	x0, [sp, #120]
ffffffff8000684c:	b9027801 	str	w1, [x0, #632]
ffffffff80006850:	14000005 	b	ffffffff80006864 <flanterm_fb_init+0x278>
ffffffff80006854:	f9403fe0 	ldr	x0, [sp, #120]
ffffffff80006858:	52955541 	mov	w1, #0xaaaa                	// #43690
ffffffff8000685c:	72a01541 	movk	w1, #0xaa, lsl #16
ffffffff80006860:	b9027801 	str	w1, [x0, #632]
ffffffff80006864:	f94077e0 	ldr	x0, [sp, #232]
ffffffff80006868:	f100001f 	cmp	x0, #0x0
ffffffff8000686c:	540000c0 	b.eq	ffffffff80006884 <flanterm_fb_init+0x298>  // b.none
ffffffff80006870:	f94077e0 	ldr	x0, [sp, #232]
ffffffff80006874:	b9400001 	ldr	w1, [x0]
ffffffff80006878:	f9403fe0 	ldr	x0, [sp, #120]
ffffffff8000687c:	b9028401 	str	w1, [x0, #644]
ffffffff80006880:	14000005 	b	ffffffff80006894 <flanterm_fb_init+0x2a8>
ffffffff80006884:	f9403fe0 	ldr	x0, [sp, #120]
ffffffff80006888:	528aaaa1 	mov	w1, #0x5555                	// #21845
ffffffff8000688c:	72a00aa1 	movk	w1, #0x55, lsl #16
ffffffff80006890:	b9028401 	str	w1, [x0, #644]
ffffffff80006894:	f9407be0 	ldr	x0, [sp, #240]
ffffffff80006898:	f100001f 	cmp	x0, #0x0
ffffffff8000689c:	540000c0 	b.eq	ffffffff800068b4 <flanterm_fb_init+0x2c8>  // b.none
ffffffff800068a0:	f9407be0 	ldr	x0, [sp, #240]
ffffffff800068a4:	b9400001 	ldr	w1, [x0]
ffffffff800068a8:	f9403fe0 	ldr	x0, [sp, #120]
ffffffff800068ac:	b9028001 	str	w1, [x0, #640]
ffffffff800068b0:	14000004 	b	ffffffff800068c0 <flanterm_fb_init+0x2d4>
ffffffff800068b4:	f9403fe0 	ldr	x0, [sp, #120]
ffffffff800068b8:	12bfe001 	mov	w1, #0xffffff              	// #16777215
ffffffff800068bc:	b9028001 	str	w1, [x0, #640]
ffffffff800068c0:	f9403fe0 	ldr	x0, [sp, #120]
ffffffff800068c4:	b9427801 	ldr	w1, [x0, #632]
ffffffff800068c8:	f9403fe0 	ldr	x0, [sp, #120]
ffffffff800068cc:	b902d001 	str	w1, [x0, #720]
ffffffff800068d0:	f9403fe0 	ldr	x0, [sp, #120]
ffffffff800068d4:	12800001 	mov	w1, #0xffffffff            	// #-1
ffffffff800068d8:	b902d401 	str	w1, [x0, #724]
ffffffff800068dc:	f9403fe0 	ldr	x0, [sp, #120]
ffffffff800068e0:	f9401fe1 	ldr	x1, [sp, #56]
ffffffff800068e4:	f900f801 	str	x1, [x0, #496]
ffffffff800068e8:	f9403fe0 	ldr	x0, [sp, #120]
ffffffff800068ec:	f9401be1 	ldr	x1, [sp, #48]
ffffffff800068f0:	f9010001 	str	x1, [x0, #512]
ffffffff800068f4:	f9403fe0 	ldr	x0, [sp, #120]
ffffffff800068f8:	f94017e1 	ldr	x1, [sp, #40]
ffffffff800068fc:	f9010401 	str	x1, [x0, #520]
ffffffff80006900:	f9403fe0 	ldr	x0, [sp, #120]
ffffffff80006904:	f94013e1 	ldr	x1, [sp, #32]
ffffffff80006908:	f900fc01 	str	x1, [x0, #504]
ffffffff8000690c:	f9407fe0 	ldr	x0, [sp, #248]
ffffffff80006910:	f100001f 	cmp	x0, #0x0
ffffffff80006914:	54000440 	b.eq	ffffffff8000699c <flanterm_fb_init+0x3b0>  // b.none
ffffffff80006918:	f9403fe0 	ldr	x0, [sp, #120]
ffffffff8000691c:	f94083e1 	ldr	x1, [sp, #256]
ffffffff80006920:	f900d801 	str	x1, [x0, #432]
ffffffff80006924:	f9403fe0 	ldr	x0, [sp, #120]
ffffffff80006928:	f94087e1 	ldr	x1, [sp, #264]
ffffffff8000692c:	f900dc01 	str	x1, [x0, #440]
ffffffff80006930:	f94083e1 	ldr	x1, [sp, #256]
ffffffff80006934:	f94087e0 	ldr	x0, [sp, #264]
ffffffff80006938:	9b007c20 	mul	x0, x1, x0
ffffffff8000693c:	d378dc00 	lsl	x0, x0, #8
ffffffff80006940:	d343fc01 	lsr	x1, x0, #3
ffffffff80006944:	f9403fe0 	ldr	x0, [sp, #120]
ffffffff80006948:	f9010c01 	str	x1, [x0, #536]
ffffffff8000694c:	f9403fe0 	ldr	x0, [sp, #120]
ffffffff80006950:	f9410c00 	ldr	x0, [x0, #536]
ffffffff80006954:	f94027e1 	ldr	x1, [sp, #72]
ffffffff80006958:	d63f0020 	blr	x1
ffffffff8000695c:	aa0003e1 	mov	x1, x0
ffffffff80006960:	f9403fe0 	ldr	x0, [sp, #120]
ffffffff80006964:	f9011001 	str	x1, [x0, #544]
ffffffff80006968:	f9403fe0 	ldr	x0, [sp, #120]
ffffffff8000696c:	f9411000 	ldr	x0, [x0, #544]
ffffffff80006970:	f100001f 	cmp	x0, #0x0
ffffffff80006974:	54004440 	b.eq	ffffffff800071fc <flanterm_fb_init+0xc10>  // b.none
ffffffff80006978:	f9403fe0 	ldr	x0, [sp, #120]
ffffffff8000697c:	f9411003 	ldr	x3, [x0, #544]
ffffffff80006980:	f9403fe0 	ldr	x0, [sp, #120]
ffffffff80006984:	f9410c00 	ldr	x0, [x0, #536]
ffffffff80006988:	aa0003e2 	mov	x2, x0
ffffffff8000698c:	f9407fe1 	ldr	x1, [sp, #248]
ffffffff80006990:	aa0303e0 	mov	x0, x3
ffffffff80006994:	97ffe59b 	bl	ffffffff80000000 <memcpy>
ffffffff80006998:	14000028 	b	ffffffff80006a38 <flanterm_fb_init+0x44c>
ffffffff8000699c:	d2800100 	mov	x0, #0x8                   	// #8
ffffffff800069a0:	f90083e0 	str	x0, [sp, #256]
ffffffff800069a4:	f9403fe0 	ldr	x0, [sp, #120]
ffffffff800069a8:	f94083e1 	ldr	x1, [sp, #256]
ffffffff800069ac:	f900d801 	str	x1, [x0, #432]
ffffffff800069b0:	d2800200 	mov	x0, #0x10                  	// #16
ffffffff800069b4:	f90087e0 	str	x0, [sp, #264]
ffffffff800069b8:	f9403fe0 	ldr	x0, [sp, #120]
ffffffff800069bc:	f94087e1 	ldr	x1, [sp, #264]
ffffffff800069c0:	f900dc01 	str	x1, [x0, #440]
ffffffff800069c4:	f94083e1 	ldr	x1, [sp, #256]
ffffffff800069c8:	f94087e0 	ldr	x0, [sp, #264]
ffffffff800069cc:	9b007c20 	mul	x0, x1, x0
ffffffff800069d0:	d378dc00 	lsl	x0, x0, #8
ffffffff800069d4:	d343fc01 	lsr	x1, x0, #3
ffffffff800069d8:	f9403fe0 	ldr	x0, [sp, #120]
ffffffff800069dc:	f9010c01 	str	x1, [x0, #536]
ffffffff800069e0:	d2800020 	mov	x0, #0x1                   	// #1
ffffffff800069e4:	f9008be0 	str	x0, [sp, #272]
ffffffff800069e8:	f9403fe0 	ldr	x0, [sp, #120]
ffffffff800069ec:	f9410c00 	ldr	x0, [x0, #536]
ffffffff800069f0:	f94027e1 	ldr	x1, [sp, #72]
ffffffff800069f4:	d63f0020 	blr	x1
ffffffff800069f8:	aa0003e1 	mov	x1, x0
ffffffff800069fc:	f9403fe0 	ldr	x0, [sp, #120]
ffffffff80006a00:	f9011001 	str	x1, [x0, #544]
ffffffff80006a04:	f9403fe0 	ldr	x0, [sp, #120]
ffffffff80006a08:	f9411000 	ldr	x0, [x0, #544]
ffffffff80006a0c:	f100001f 	cmp	x0, #0x0
ffffffff80006a10:	54003fa0 	b.eq	ffffffff80007204 <flanterm_fb_init+0xc18>  // b.none
ffffffff80006a14:	f9403fe0 	ldr	x0, [sp, #120]
ffffffff80006a18:	f9411003 	ldr	x3, [x0, #544]
ffffffff80006a1c:	f9403fe0 	ldr	x0, [sp, #120]
ffffffff80006a20:	f9410c00 	ldr	x0, [x0, #536]
ffffffff80006a24:	aa0003e2 	mov	x2, x0
ffffffff80006a28:	f0000080 	adrp	x0, ffffffff80019000 <col256+0xe60>
ffffffff80006a2c:	91190001 	add	x1, x0, #0x640
ffffffff80006a30:	aa0303e0 	mov	x0, x3
ffffffff80006a34:	97ffe573 	bl	ffffffff80000000 <memcpy>
ffffffff80006a38:	f9403fe0 	ldr	x0, [sp, #120]
ffffffff80006a3c:	f940d801 	ldr	x1, [x0, #432]
ffffffff80006a40:	f9408be0 	ldr	x0, [sp, #272]
ffffffff80006a44:	8b000021 	add	x1, x1, x0
ffffffff80006a48:	f9403fe0 	ldr	x0, [sp, #120]
ffffffff80006a4c:	f900d801 	str	x1, [x0, #432]
ffffffff80006a50:	f9403fe0 	ldr	x0, [sp, #120]
ffffffff80006a54:	f940d801 	ldr	x1, [x0, #432]
ffffffff80006a58:	f94087e0 	ldr	x0, [sp, #264]
ffffffff80006a5c:	9b007c20 	mul	x0, x1, x0
ffffffff80006a60:	d378dc01 	lsl	x1, x0, #8
ffffffff80006a64:	f9403fe0 	ldr	x0, [sp, #120]
ffffffff80006a68:	f9011401 	str	x1, [x0, #552]
ffffffff80006a6c:	f9403fe0 	ldr	x0, [sp, #120]
ffffffff80006a70:	f9411400 	ldr	x0, [x0, #552]
ffffffff80006a74:	f94027e1 	ldr	x1, [sp, #72]
ffffffff80006a78:	d63f0020 	blr	x1
ffffffff80006a7c:	aa0003e1 	mov	x1, x0
ffffffff80006a80:	f9403fe0 	ldr	x0, [sp, #120]
ffffffff80006a84:	f9011801 	str	x1, [x0, #560]
ffffffff80006a88:	f9403fe0 	ldr	x0, [sp, #120]
ffffffff80006a8c:	f9411800 	ldr	x0, [x0, #560]
ffffffff80006a90:	f100001f 	cmp	x0, #0x0
ffffffff80006a94:	54003bc0 	b.eq	ffffffff8000720c <flanterm_fb_init+0xc20>  // b.none
ffffffff80006a98:	f9005fff 	str	xzr, [sp, #184]
ffffffff80006a9c:	1400006e 	b	ffffffff80006c54 <flanterm_fb_init+0x668>
ffffffff80006aa0:	f9403fe0 	ldr	x0, [sp, #120]
ffffffff80006aa4:	f9411001 	ldr	x1, [x0, #544]
ffffffff80006aa8:	f9405fe2 	ldr	x2, [sp, #184]
ffffffff80006aac:	f94087e0 	ldr	x0, [sp, #264]
ffffffff80006ab0:	9b007c40 	mul	x0, x2, x0
ffffffff80006ab4:	8b000020 	add	x0, x1, x0
ffffffff80006ab8:	f90037e0 	str	x0, [sp, #104]
ffffffff80006abc:	f9005bff 	str	xzr, [sp, #176]
ffffffff80006ac0:	1400005e 	b	ffffffff80006c38 <flanterm_fb_init+0x64c>
ffffffff80006ac4:	f90057ff 	str	xzr, [sp, #168]
ffffffff80006ac8:	14000027 	b	ffffffff80006b64 <flanterm_fb_init+0x578>
ffffffff80006acc:	f9405fe1 	ldr	x1, [sp, #184]
ffffffff80006ad0:	f94087e0 	ldr	x0, [sp, #264]
ffffffff80006ad4:	9b007c21 	mul	x1, x1, x0
ffffffff80006ad8:	f9405be0 	ldr	x0, [sp, #176]
ffffffff80006adc:	8b000021 	add	x1, x1, x0
ffffffff80006ae0:	f9403fe0 	ldr	x0, [sp, #120]
ffffffff80006ae4:	f940d800 	ldr	x0, [x0, #432]
ffffffff80006ae8:	9b007c20 	mul	x0, x1, x0
ffffffff80006aec:	f94057e1 	ldr	x1, [sp, #168]
ffffffff80006af0:	8b000020 	add	x0, x1, x0
ffffffff80006af4:	f9002fe0 	str	x0, [sp, #88]
ffffffff80006af8:	f94037e1 	ldr	x1, [sp, #104]
ffffffff80006afc:	f9405be0 	ldr	x0, [sp, #176]
ffffffff80006b00:	8b000020 	add	x0, x1, x0
ffffffff80006b04:	39400000 	ldrb	w0, [x0]
ffffffff80006b08:	2a0003e1 	mov	w1, w0
ffffffff80006b0c:	f94057e0 	ldr	x0, [sp, #168]
ffffffff80006b10:	2a0003e2 	mov	w2, w0
ffffffff80006b14:	52801000 	mov	w0, #0x80                  	// #128
ffffffff80006b18:	1ac22800 	asr	w0, w0, w2
ffffffff80006b1c:	0a000020 	and	w0, w1, w0
ffffffff80006b20:	7100001f 	cmp	w0, #0x0
ffffffff80006b24:	54000100 	b.eq	ffffffff80006b44 <flanterm_fb_init+0x558>  // b.none
ffffffff80006b28:	f9403fe0 	ldr	x0, [sp, #120]
ffffffff80006b2c:	f9411801 	ldr	x1, [x0, #560]
ffffffff80006b30:	f9402fe0 	ldr	x0, [sp, #88]
ffffffff80006b34:	8b000020 	add	x0, x1, x0
ffffffff80006b38:	52800021 	mov	w1, #0x1                   	// #1
ffffffff80006b3c:	39000001 	strb	w1, [x0]
ffffffff80006b40:	14000006 	b	ffffffff80006b58 <flanterm_fb_init+0x56c>
ffffffff80006b44:	f9403fe0 	ldr	x0, [sp, #120]
ffffffff80006b48:	f9411801 	ldr	x1, [x0, #560]
ffffffff80006b4c:	f9402fe0 	ldr	x0, [sp, #88]
ffffffff80006b50:	8b000020 	add	x0, x1, x0
ffffffff80006b54:	3900001f 	strb	wzr, [x0]
ffffffff80006b58:	f94057e0 	ldr	x0, [sp, #168]
ffffffff80006b5c:	91000400 	add	x0, x0, #0x1
ffffffff80006b60:	f90057e0 	str	x0, [sp, #168]
ffffffff80006b64:	f94057e0 	ldr	x0, [sp, #168]
ffffffff80006b68:	f1001c1f 	cmp	x0, #0x7
ffffffff80006b6c:	54fffb09 	b.ls	ffffffff80006acc <flanterm_fb_init+0x4e0>  // b.plast
ffffffff80006b70:	d2800100 	mov	x0, #0x8                   	// #8
ffffffff80006b74:	f90053e0 	str	x0, [sp, #160]
ffffffff80006b78:	14000028 	b	ffffffff80006c18 <flanterm_fb_init+0x62c>
ffffffff80006b7c:	f9405fe1 	ldr	x1, [sp, #184]
ffffffff80006b80:	f94087e0 	ldr	x0, [sp, #264]
ffffffff80006b84:	9b007c21 	mul	x1, x1, x0
ffffffff80006b88:	f9405be0 	ldr	x0, [sp, #176]
ffffffff80006b8c:	8b000021 	add	x1, x1, x0
ffffffff80006b90:	f9403fe0 	ldr	x0, [sp, #120]
ffffffff80006b94:	f940d800 	ldr	x0, [x0, #432]
ffffffff80006b98:	9b007c20 	mul	x0, x1, x0
ffffffff80006b9c:	f94053e1 	ldr	x1, [sp, #160]
ffffffff80006ba0:	8b000020 	add	x0, x1, x0
ffffffff80006ba4:	f90033e0 	str	x0, [sp, #96]
ffffffff80006ba8:	f9405fe0 	ldr	x0, [sp, #184]
ffffffff80006bac:	f102fc1f 	cmp	x0, #0xbf
ffffffff80006bb0:	54000249 	b.ls	ffffffff80006bf8 <flanterm_fb_init+0x60c>  // b.plast
ffffffff80006bb4:	f9405fe0 	ldr	x0, [sp, #184]
ffffffff80006bb8:	f1037c1f 	cmp	x0, #0xdf
ffffffff80006bbc:	540001e8 	b.hi	ffffffff80006bf8 <flanterm_fb_init+0x60c>  // b.pmore
ffffffff80006bc0:	f94037e1 	ldr	x1, [sp, #104]
ffffffff80006bc4:	f9405be0 	ldr	x0, [sp, #176]
ffffffff80006bc8:	8b000020 	add	x0, x1, x0
ffffffff80006bcc:	39400000 	ldrb	w0, [x0]
ffffffff80006bd0:	12000001 	and	w1, w0, #0x1
ffffffff80006bd4:	f9403fe0 	ldr	x0, [sp, #120]
ffffffff80006bd8:	f9411802 	ldr	x2, [x0, #560]
ffffffff80006bdc:	f94033e0 	ldr	x0, [sp, #96]
ffffffff80006be0:	8b000040 	add	x0, x2, x0
ffffffff80006be4:	7100003f 	cmp	w1, #0x0
ffffffff80006be8:	1a9f07e1 	cset	w1, ne	// ne = any
ffffffff80006bec:	12001c21 	and	w1, w1, #0xff
ffffffff80006bf0:	39000001 	strb	w1, [x0]
ffffffff80006bf4:	14000006 	b	ffffffff80006c0c <flanterm_fb_init+0x620>
ffffffff80006bf8:	f9403fe0 	ldr	x0, [sp, #120]
ffffffff80006bfc:	f9411801 	ldr	x1, [x0, #560]
ffffffff80006c00:	f94033e0 	ldr	x0, [sp, #96]
ffffffff80006c04:	8b000020 	add	x0, x1, x0
ffffffff80006c08:	3900001f 	strb	wzr, [x0]
ffffffff80006c0c:	f94053e0 	ldr	x0, [sp, #160]
ffffffff80006c10:	91000400 	add	x0, x0, #0x1
ffffffff80006c14:	f90053e0 	str	x0, [sp, #160]
ffffffff80006c18:	f9403fe0 	ldr	x0, [sp, #120]
ffffffff80006c1c:	f940d800 	ldr	x0, [x0, #432]
ffffffff80006c20:	f94053e1 	ldr	x1, [sp, #160]
ffffffff80006c24:	eb00003f 	cmp	x1, x0
ffffffff80006c28:	54fffaa3 	b.cc	ffffffff80006b7c <flanterm_fb_init+0x590>  // b.lo, b.ul, b.last
ffffffff80006c2c:	f9405be0 	ldr	x0, [sp, #176]
ffffffff80006c30:	91000400 	add	x0, x0, #0x1
ffffffff80006c34:	f9005be0 	str	x0, [sp, #176]
ffffffff80006c38:	f9405be1 	ldr	x1, [sp, #176]
ffffffff80006c3c:	f94087e0 	ldr	x0, [sp, #264]
ffffffff80006c40:	eb00003f 	cmp	x1, x0
ffffffff80006c44:	54fff403 	b.cc	ffffffff80006ac4 <flanterm_fb_init+0x4d8>  // b.lo, b.ul, b.last
ffffffff80006c48:	f9405fe0 	ldr	x0, [sp, #184]
ffffffff80006c4c:	91000400 	add	x0, x0, #0x1
ffffffff80006c50:	f9005fe0 	str	x0, [sp, #184]
ffffffff80006c54:	f9405fe0 	ldr	x0, [sp, #184]
ffffffff80006c58:	f103fc1f 	cmp	x0, #0xff
ffffffff80006c5c:	54fff229 	b.ls	ffffffff80006aa0 <flanterm_fb_init+0x4b4>  // b.plast
ffffffff80006c60:	f9403fe0 	ldr	x0, [sp, #120]
ffffffff80006c64:	f9408fe1 	ldr	x1, [sp, #280]
ffffffff80006c68:	f900e801 	str	x1, [x0, #464]
ffffffff80006c6c:	f9403fe0 	ldr	x0, [sp, #120]
ffffffff80006c70:	f94093e1 	ldr	x1, [sp, #288]
ffffffff80006c74:	f900ec01 	str	x1, [x0, #472]
ffffffff80006c78:	f9403fe0 	ldr	x0, [sp, #120]
ffffffff80006c7c:	f940d801 	ldr	x1, [x0, #432]
ffffffff80006c80:	f9408fe0 	ldr	x0, [sp, #280]
ffffffff80006c84:	9b007c21 	mul	x1, x1, x0
ffffffff80006c88:	f9403fe0 	ldr	x0, [sp, #120]
ffffffff80006c8c:	f900e001 	str	x1, [x0, #448]
ffffffff80006c90:	f94087e1 	ldr	x1, [sp, #264]
ffffffff80006c94:	f94093e0 	ldr	x0, [sp, #288]
ffffffff80006c98:	9b007c21 	mul	x1, x1, x0
ffffffff80006c9c:	f9403fe0 	ldr	x0, [sp, #120]
ffffffff80006ca0:	f900e401 	str	x1, [x0, #456]
ffffffff80006ca4:	f9403fe0 	ldr	x0, [sp, #120]
ffffffff80006ca8:	f9410001 	ldr	x1, [x0, #512]
ffffffff80006cac:	f94097e0 	ldr	x0, [sp, #296]
ffffffff80006cb0:	d37ff800 	lsl	x0, x0, #1
ffffffff80006cb4:	cb000021 	sub	x1, x1, x0
ffffffff80006cb8:	f9403fe0 	ldr	x0, [sp, #120]
ffffffff80006cbc:	f940e000 	ldr	x0, [x0, #448]
ffffffff80006cc0:	9ac00821 	udiv	x1, x1, x0
ffffffff80006cc4:	f9403be0 	ldr	x0, [sp, #112]
ffffffff80006cc8:	f9007401 	str	x1, [x0, #232]
ffffffff80006ccc:	f9403fe0 	ldr	x0, [sp, #120]
ffffffff80006cd0:	f9410401 	ldr	x1, [x0, #520]
ffffffff80006cd4:	f94097e0 	ldr	x0, [sp, #296]
ffffffff80006cd8:	d37ff800 	lsl	x0, x0, #1
ffffffff80006cdc:	cb000021 	sub	x1, x1, x0
ffffffff80006ce0:	f9403fe0 	ldr	x0, [sp, #120]
ffffffff80006ce4:	f940e400 	ldr	x0, [x0, #456]
ffffffff80006ce8:	9ac00821 	udiv	x1, x1, x0
ffffffff80006cec:	f9403be0 	ldr	x0, [sp, #112]
ffffffff80006cf0:	f9007001 	str	x1, [x0, #224]
ffffffff80006cf4:	f9403fe0 	ldr	x0, [sp, #120]
ffffffff80006cf8:	f9410001 	ldr	x1, [x0, #512]
ffffffff80006cfc:	f94097e0 	ldr	x0, [sp, #296]
ffffffff80006d00:	d37ff800 	lsl	x0, x0, #1
ffffffff80006d04:	cb000020 	sub	x0, x1, x0
ffffffff80006d08:	f9403fe1 	ldr	x1, [sp, #120]
ffffffff80006d0c:	f940e021 	ldr	x1, [x1, #448]
ffffffff80006d10:	9ac10802 	udiv	x2, x0, x1
ffffffff80006d14:	9b017c41 	mul	x1, x2, x1
ffffffff80006d18:	cb010000 	sub	x0, x0, x1
ffffffff80006d1c:	d341fc01 	lsr	x1, x0, #1
ffffffff80006d20:	f94097e0 	ldr	x0, [sp, #296]
ffffffff80006d24:	8b000021 	add	x1, x1, x0
ffffffff80006d28:	f9403fe0 	ldr	x0, [sp, #120]
ffffffff80006d2c:	f900f001 	str	x1, [x0, #480]
ffffffff80006d30:	f9403fe0 	ldr	x0, [sp, #120]
ffffffff80006d34:	f9410401 	ldr	x1, [x0, #520]
ffffffff80006d38:	f94097e0 	ldr	x0, [sp, #296]
ffffffff80006d3c:	d37ff800 	lsl	x0, x0, #1
ffffffff80006d40:	cb000020 	sub	x0, x1, x0
ffffffff80006d44:	f9403fe1 	ldr	x1, [sp, #120]
ffffffff80006d48:	f940e421 	ldr	x1, [x1, #456]
ffffffff80006d4c:	9ac10802 	udiv	x2, x0, x1
ffffffff80006d50:	9b017c41 	mul	x1, x2, x1
ffffffff80006d54:	cb010000 	sub	x0, x0, x1
ffffffff80006d58:	d341fc01 	lsr	x1, x0, #1
ffffffff80006d5c:	f94097e0 	ldr	x0, [sp, #296]
ffffffff80006d60:	8b000021 	add	x1, x1, x0
ffffffff80006d64:	f9403fe0 	ldr	x0, [sp, #120]
ffffffff80006d68:	f900f401 	str	x1, [x0, #488]
ffffffff80006d6c:	f9403be0 	ldr	x0, [sp, #112]
ffffffff80006d70:	f9407001 	ldr	x1, [x0, #224]
ffffffff80006d74:	f9403be0 	ldr	x0, [sp, #112]
ffffffff80006d78:	f9407400 	ldr	x0, [x0, #232]
ffffffff80006d7c:	9b007c21 	mul	x1, x1, x0
ffffffff80006d80:	aa0103e0 	mov	x0, x1
ffffffff80006d84:	d37ff800 	lsl	x0, x0, #1
ffffffff80006d88:	8b010000 	add	x0, x0, x1
ffffffff80006d8c:	d37ef400 	lsl	x0, x0, #2
ffffffff80006d90:	aa0003e1 	mov	x1, x0
ffffffff80006d94:	f9403fe0 	ldr	x0, [sp, #120]
ffffffff80006d98:	f9014c01 	str	x1, [x0, #664]
ffffffff80006d9c:	f9403fe0 	ldr	x0, [sp, #120]
ffffffff80006da0:	f9414c00 	ldr	x0, [x0, #664]
ffffffff80006da4:	f94027e1 	ldr	x1, [sp, #72]
ffffffff80006da8:	d63f0020 	blr	x1
ffffffff80006dac:	aa0003e1 	mov	x1, x0
ffffffff80006db0:	f9403fe0 	ldr	x0, [sp, #120]
ffffffff80006db4:	f9015801 	str	x1, [x0, #688]
ffffffff80006db8:	f9403fe0 	ldr	x0, [sp, #120]
ffffffff80006dbc:	f9415800 	ldr	x0, [x0, #688]
ffffffff80006dc0:	f100001f 	cmp	x0, #0x0
ffffffff80006dc4:	54002280 	b.eq	ffffffff80007214 <flanterm_fb_init+0xc28>  // b.none
ffffffff80006dc8:	f9004fff 	str	xzr, [sp, #152]
ffffffff80006dcc:	14000024 	b	ffffffff80006e5c <flanterm_fb_init+0x870>
ffffffff80006dd0:	f9403fe0 	ldr	x0, [sp, #120]
ffffffff80006dd4:	f9415802 	ldr	x2, [x0, #688]
ffffffff80006dd8:	f9404fe1 	ldr	x1, [sp, #152]
ffffffff80006ddc:	aa0103e0 	mov	x0, x1
ffffffff80006de0:	d37ff800 	lsl	x0, x0, #1
ffffffff80006de4:	8b010000 	add	x0, x0, x1
ffffffff80006de8:	d37ef400 	lsl	x0, x0, #2
ffffffff80006dec:	8b000040 	add	x0, x2, x0
ffffffff80006df0:	52800401 	mov	w1, #0x20                  	// #32
ffffffff80006df4:	b9000001 	str	w1, [x0]
ffffffff80006df8:	f9403fe0 	ldr	x0, [sp, #120]
ffffffff80006dfc:	f9415802 	ldr	x2, [x0, #688]
ffffffff80006e00:	f9404fe1 	ldr	x1, [sp, #152]
ffffffff80006e04:	aa0103e0 	mov	x0, x1
ffffffff80006e08:	d37ff800 	lsl	x0, x0, #1
ffffffff80006e0c:	8b010000 	add	x0, x0, x1
ffffffff80006e10:	d37ef400 	lsl	x0, x0, #2
ffffffff80006e14:	8b000040 	add	x0, x2, x0
ffffffff80006e18:	f9403fe1 	ldr	x1, [sp, #120]
ffffffff80006e1c:	b942d021 	ldr	w1, [x1, #720]
ffffffff80006e20:	b9000401 	str	w1, [x0, #4]
ffffffff80006e24:	f9403fe0 	ldr	x0, [sp, #120]
ffffffff80006e28:	f9415802 	ldr	x2, [x0, #688]
ffffffff80006e2c:	f9404fe1 	ldr	x1, [sp, #152]
ffffffff80006e30:	aa0103e0 	mov	x0, x1
ffffffff80006e34:	d37ff800 	lsl	x0, x0, #1
ffffffff80006e38:	8b010000 	add	x0, x0, x1
ffffffff80006e3c:	d37ef400 	lsl	x0, x0, #2
ffffffff80006e40:	8b000040 	add	x0, x2, x0
ffffffff80006e44:	f9403fe1 	ldr	x1, [sp, #120]
ffffffff80006e48:	b942d421 	ldr	w1, [x1, #724]
ffffffff80006e4c:	b9000801 	str	w1, [x0, #8]
ffffffff80006e50:	f9404fe0 	ldr	x0, [sp, #152]
ffffffff80006e54:	91000400 	add	x0, x0, #0x1
ffffffff80006e58:	f9004fe0 	str	x0, [sp, #152]
ffffffff80006e5c:	f9403be0 	ldr	x0, [sp, #112]
ffffffff80006e60:	f9407001 	ldr	x1, [x0, #224]
ffffffff80006e64:	f9403be0 	ldr	x0, [sp, #112]
ffffffff80006e68:	f9407400 	ldr	x0, [x0, #232]
ffffffff80006e6c:	9b007c20 	mul	x0, x1, x0
ffffffff80006e70:	f9404fe1 	ldr	x1, [sp, #152]
ffffffff80006e74:	eb00003f 	cmp	x1, x0
ffffffff80006e78:	54fffac3 	b.cc	ffffffff80006dd0 <flanterm_fb_init+0x7e4>  // b.lo, b.ul, b.last
ffffffff80006e7c:	f9403be0 	ldr	x0, [sp, #112]
ffffffff80006e80:	f9407001 	ldr	x1, [x0, #224]
ffffffff80006e84:	f9403be0 	ldr	x0, [sp, #112]
ffffffff80006e88:	f9407400 	ldr	x0, [x0, #232]
ffffffff80006e8c:	9b007c20 	mul	x0, x1, x0
ffffffff80006e90:	d37be801 	lsl	x1, x0, #5
ffffffff80006e94:	f9403fe0 	ldr	x0, [sp, #120]
ffffffff80006e98:	f9015001 	str	x1, [x0, #672]
ffffffff80006e9c:	f9403fe0 	ldr	x0, [sp, #120]
ffffffff80006ea0:	f9415000 	ldr	x0, [x0, #672]
ffffffff80006ea4:	f94027e1 	ldr	x1, [sp, #72]
ffffffff80006ea8:	d63f0020 	blr	x1
ffffffff80006eac:	aa0003e1 	mov	x1, x0
ffffffff80006eb0:	f9403fe0 	ldr	x0, [sp, #120]
ffffffff80006eb4:	f9015c01 	str	x1, [x0, #696]
ffffffff80006eb8:	f9403fe0 	ldr	x0, [sp, #120]
ffffffff80006ebc:	f9415c00 	ldr	x0, [x0, #696]
ffffffff80006ec0:	f100001f 	cmp	x0, #0x0
ffffffff80006ec4:	54001ac0 	b.eq	ffffffff8000721c <flanterm_fb_init+0xc30>  // b.none
ffffffff80006ec8:	f9403fe0 	ldr	x0, [sp, #120]
ffffffff80006ecc:	f901601f 	str	xzr, [x0, #704]
ffffffff80006ed0:	f9403fe0 	ldr	x0, [sp, #120]
ffffffff80006ed4:	f9415c03 	ldr	x3, [x0, #696]
ffffffff80006ed8:	f9403fe0 	ldr	x0, [sp, #120]
ffffffff80006edc:	f9415000 	ldr	x0, [x0, #672]
ffffffff80006ee0:	aa0003e2 	mov	x2, x0
ffffffff80006ee4:	52800001 	mov	w1, #0x0                   	// #0
ffffffff80006ee8:	aa0303e0 	mov	x0, x3
ffffffff80006eec:	97ffe461 	bl	ffffffff80000070 <memset>
ffffffff80006ef0:	f9403be0 	ldr	x0, [sp, #112]
ffffffff80006ef4:	f9407001 	ldr	x1, [x0, #224]
ffffffff80006ef8:	f9403be0 	ldr	x0, [sp, #112]
ffffffff80006efc:	f9407400 	ldr	x0, [x0, #232]
ffffffff80006f00:	9b007c20 	mul	x0, x1, x0
ffffffff80006f04:	d37df001 	lsl	x1, x0, #3
ffffffff80006f08:	f9403fe0 	ldr	x0, [sp, #120]
ffffffff80006f0c:	f9015401 	str	x1, [x0, #680]
ffffffff80006f10:	f9403fe0 	ldr	x0, [sp, #120]
ffffffff80006f14:	f9415400 	ldr	x0, [x0, #680]
ffffffff80006f18:	f94027e1 	ldr	x1, [sp, #72]
ffffffff80006f1c:	d63f0020 	blr	x1
ffffffff80006f20:	aa0003e1 	mov	x1, x0
ffffffff80006f24:	f9403fe0 	ldr	x0, [sp, #120]
ffffffff80006f28:	f9016401 	str	x1, [x0, #712]
ffffffff80006f2c:	f9403fe0 	ldr	x0, [sp, #120]
ffffffff80006f30:	f9416400 	ldr	x0, [x0, #712]
ffffffff80006f34:	f100001f 	cmp	x0, #0x0
ffffffff80006f38:	54001760 	b.eq	ffffffff80007224 <flanterm_fb_init+0xc38>  // b.none
ffffffff80006f3c:	f9403fe0 	ldr	x0, [sp, #120]
ffffffff80006f40:	f9416403 	ldr	x3, [x0, #712]
ffffffff80006f44:	f9403fe0 	ldr	x0, [sp, #120]
ffffffff80006f48:	f9415400 	ldr	x0, [x0, #680]
ffffffff80006f4c:	aa0003e2 	mov	x2, x0
ffffffff80006f50:	52800001 	mov	w1, #0x0                   	// #0
ffffffff80006f54:	aa0303e0 	mov	x0, x3
ffffffff80006f58:	97ffe446 	bl	ffffffff80000070 <memset>
ffffffff80006f5c:	f9403fe0 	ldr	x0, [sp, #120]
ffffffff80006f60:	f9410001 	ldr	x1, [x0, #512]
ffffffff80006f64:	f9403fe0 	ldr	x0, [sp, #120]
ffffffff80006f68:	f9410400 	ldr	x0, [x0, #520]
ffffffff80006f6c:	9b007c20 	mul	x0, x1, x0
ffffffff80006f70:	d37ef401 	lsl	x1, x0, #2
ffffffff80006f74:	f9403fe0 	ldr	x0, [sp, #120]
ffffffff80006f78:	f9014401 	str	x1, [x0, #648]
ffffffff80006f7c:	f9403fe0 	ldr	x0, [sp, #120]
ffffffff80006f80:	f9414400 	ldr	x0, [x0, #648]
ffffffff80006f84:	f94027e1 	ldr	x1, [sp, #72]
ffffffff80006f88:	d63f0020 	blr	x1
ffffffff80006f8c:	aa0003e1 	mov	x1, x0
ffffffff80006f90:	f9403fe0 	ldr	x0, [sp, #120]
ffffffff80006f94:	f9014801 	str	x1, [x0, #656]
ffffffff80006f98:	f9403fe0 	ldr	x0, [sp, #120]
ffffffff80006f9c:	f9414800 	ldr	x0, [x0, #656]
ffffffff80006fa0:	f100001f 	cmp	x0, #0x0
ffffffff80006fa4:	54001440 	b.eq	ffffffff8000722c <flanterm_fb_init+0xc40>  // b.none
ffffffff80006fa8:	f9400fe0 	ldr	x0, [sp, #24]
ffffffff80006fac:	f100001f 	cmp	x0, #0x0
ffffffff80006fb0:	54000340 	b.eq	ffffffff80007018 <flanterm_fb_init+0xa2c>  // b.none
ffffffff80006fb4:	f9004bff 	str	xzr, [sp, #144]
ffffffff80006fb8:	1400000f 	b	ffffffff80006ff4 <flanterm_fb_init+0xa08>
ffffffff80006fbc:	f9404be0 	ldr	x0, [sp, #144]
ffffffff80006fc0:	d37ef400 	lsl	x0, x0, #2
ffffffff80006fc4:	f9400fe1 	ldr	x1, [sp, #24]
ffffffff80006fc8:	8b000021 	add	x1, x1, x0
ffffffff80006fcc:	f9403fe0 	ldr	x0, [sp, #120]
ffffffff80006fd0:	f9414802 	ldr	x2, [x0, #656]
ffffffff80006fd4:	f9404be0 	ldr	x0, [sp, #144]
ffffffff80006fd8:	d37ef400 	lsl	x0, x0, #2
ffffffff80006fdc:	8b000040 	add	x0, x2, x0
ffffffff80006fe0:	b9400021 	ldr	w1, [x1]
ffffffff80006fe4:	b9000001 	str	w1, [x0]
ffffffff80006fe8:	f9404be0 	ldr	x0, [sp, #144]
ffffffff80006fec:	91000400 	add	x0, x0, #0x1
ffffffff80006ff0:	f9004be0 	str	x0, [sp, #144]
ffffffff80006ff4:	f9403fe0 	ldr	x0, [sp, #120]
ffffffff80006ff8:	f9410001 	ldr	x1, [x0, #512]
ffffffff80006ffc:	f9403fe0 	ldr	x0, [sp, #120]
ffffffff80007000:	f9410400 	ldr	x0, [x0, #520]
ffffffff80007004:	9b007c20 	mul	x0, x1, x0
ffffffff80007008:	f9404be1 	ldr	x1, [sp, #144]
ffffffff8000700c:	eb00003f 	cmp	x1, x0
ffffffff80007010:	54fffd63 	b.cc	ffffffff80006fbc <flanterm_fb_init+0x9d0>  // b.lo, b.ul, b.last
ffffffff80007014:	14000016 	b	ffffffff8000706c <flanterm_fb_init+0xa80>
ffffffff80007018:	f90047ff 	str	xzr, [sp, #136]
ffffffff8000701c:	1400000c 	b	ffffffff8000704c <flanterm_fb_init+0xa60>
ffffffff80007020:	f9403fe0 	ldr	x0, [sp, #120]
ffffffff80007024:	f9414801 	ldr	x1, [x0, #656]
ffffffff80007028:	f94047e0 	ldr	x0, [sp, #136]
ffffffff8000702c:	d37ef400 	lsl	x0, x0, #2
ffffffff80007030:	8b000020 	add	x0, x1, x0
ffffffff80007034:	f9403fe1 	ldr	x1, [sp, #120]
ffffffff80007038:	b9427c21 	ldr	w1, [x1, #636]
ffffffff8000703c:	b9000001 	str	w1, [x0]
ffffffff80007040:	f94047e0 	ldr	x0, [sp, #136]
ffffffff80007044:	91000400 	add	x0, x0, #0x1
ffffffff80007048:	f90047e0 	str	x0, [sp, #136]
ffffffff8000704c:	f9403fe0 	ldr	x0, [sp, #120]
ffffffff80007050:	f9410001 	ldr	x1, [x0, #512]
ffffffff80007054:	f9403fe0 	ldr	x0, [sp, #120]
ffffffff80007058:	f9410400 	ldr	x0, [x0, #520]
ffffffff8000705c:	9b007c20 	mul	x0, x1, x0
ffffffff80007060:	f94047e1 	ldr	x1, [sp, #136]
ffffffff80007064:	eb00003f 	cmp	x1, x0
ffffffff80007068:	54fffdc3 	b.cc	ffffffff80007020 <flanterm_fb_init+0xa34>  // b.lo, b.ul, b.last
ffffffff8000706c:	f9403be0 	ldr	x0, [sp, #112]
ffffffff80007070:	f0ffffe1 	adrp	x1, ffffffff80006000 <flanterm_fb_double_buffer_flush+0x94>
ffffffff80007074:	9108c021 	add	x1, x1, #0x230
ffffffff80007078:	f9007801 	str	x1, [x0, #240]
ffffffff8000707c:	f9403be0 	ldr	x0, [sp, #112]
ffffffff80007080:	d0ffffe1 	adrp	x1, ffffffff80005000 <plot_char+0x1e8>
ffffffff80007084:	9122c021 	add	x1, x1, #0x8b0
ffffffff80007088:	f9007c01 	str	x1, [x0, #248]
ffffffff8000708c:	f9403be0 	ldr	x0, [sp, #112]
ffffffff80007090:	d0ffffe1 	adrp	x1, ffffffff80005000 <plot_char+0x1e8>
ffffffff80007094:	91261021 	add	x1, x1, #0x984
ffffffff80007098:	f9008001 	str	x1, [x0, #256]
ffffffff8000709c:	f9403be0 	ldr	x0, [sp, #112]
ffffffff800070a0:	d0ffffe1 	adrp	x1, ffffffff80005000 <plot_char+0x1e8>
ffffffff800070a4:	9128c021 	add	x1, x1, #0xa30
ffffffff800070a8:	f9008401 	str	x1, [x0, #264]
ffffffff800070ac:	f9403be0 	ldr	x0, [sp, #112]
ffffffff800070b0:	d0ffffe1 	adrp	x1, ffffffff80005000 <plot_char+0x1e8>
ffffffff800070b4:	912f5021 	add	x1, x1, #0xbd4
ffffffff800070b8:	f9008801 	str	x1, [x0, #272]
ffffffff800070bc:	f9403be0 	ldr	x0, [sp, #112]
ffffffff800070c0:	d0ffffe1 	adrp	x1, ffffffff80005000 <plot_char+0x1e8>
ffffffff800070c4:	91305021 	add	x1, x1, #0xc14
ffffffff800070c8:	f9008c01 	str	x1, [x0, #280]
ffffffff800070cc:	f9403be0 	ldr	x0, [sp, #112]
ffffffff800070d0:	d0ffffe1 	adrp	x1, ffffffff80005000 <plot_char+0x1e8>
ffffffff800070d4:	91315021 	add	x1, x1, #0xc54
ffffffff800070d8:	f9009001 	str	x1, [x0, #288]
ffffffff800070dc:	f9403be0 	ldr	x0, [sp, #112]
ffffffff800070e0:	d0ffffe1 	adrp	x1, ffffffff80005000 <plot_char+0x1e8>
ffffffff800070e4:	91325021 	add	x1, x1, #0xc94
ffffffff800070e8:	f9009401 	str	x1, [x0, #296]
ffffffff800070ec:	f9403be0 	ldr	x0, [sp, #112]
ffffffff800070f0:	d0ffffe1 	adrp	x1, ffffffff80005000 <plot_char+0x1e8>
ffffffff800070f4:	91335021 	add	x1, x1, #0xcd4
ffffffff800070f8:	f9009801 	str	x1, [x0, #304]
ffffffff800070fc:	f9403be0 	ldr	x0, [sp, #112]
ffffffff80007100:	d0ffffe1 	adrp	x1, ffffffff80005000 <plot_char+0x1e8>
ffffffff80007104:	91340021 	add	x1, x1, #0xd00
ffffffff80007108:	f9009c01 	str	x1, [x0, #312]
ffffffff8000710c:	f9403be0 	ldr	x0, [sp, #112]
ffffffff80007110:	d0ffffe1 	adrp	x1, ffffffff80005000 <plot_char+0x1e8>
ffffffff80007114:	9134b021 	add	x1, x1, #0xd2c
ffffffff80007118:	f900a001 	str	x1, [x0, #320]
ffffffff8000711c:	f9403be0 	ldr	x0, [sp, #112]
ffffffff80007120:	d0ffffe1 	adrp	x1, ffffffff80005000 <plot_char+0x1e8>
ffffffff80007124:	91356021 	add	x1, x1, #0xd58
ffffffff80007128:	f900a401 	str	x1, [x0, #328]
ffffffff8000712c:	f9403be0 	ldr	x0, [sp, #112]
ffffffff80007130:	d0ffffe1 	adrp	x1, ffffffff80005000 <plot_char+0x1e8>
ffffffff80007134:	91360021 	add	x1, x1, #0xd80
ffffffff80007138:	f900a801 	str	x1, [x0, #336]
ffffffff8000713c:	f9403be0 	ldr	x0, [sp, #112]
ffffffff80007140:	d0ffffe1 	adrp	x1, ffffffff80005000 <plot_char+0x1e8>
ffffffff80007144:	9136b021 	add	x1, x1, #0xdac
ffffffff80007148:	f900ac01 	str	x1, [x0, #344]
ffffffff8000714c:	f9403be0 	ldr	x0, [sp, #112]
ffffffff80007150:	d0ffffe1 	adrp	x1, ffffffff80005000 <plot_char+0x1e8>
ffffffff80007154:	912b1021 	add	x1, x1, #0xac4
ffffffff80007158:	f900b001 	str	x1, [x0, #352]
ffffffff8000715c:	f9403be0 	ldr	x0, [sp, #112]
ffffffff80007160:	d0ffffe1 	adrp	x1, ffffffff80005000 <plot_char+0x1e8>
ffffffff80007164:	911ca021 	add	x1, x1, #0x728
ffffffff80007168:	f900b401 	str	x1, [x0, #360]
ffffffff8000716c:	f9403be0 	ldr	x0, [sp, #112]
ffffffff80007170:	d0ffffe1 	adrp	x1, ffffffff80005000 <plot_char+0x1e8>
ffffffff80007174:	91163021 	add	x1, x1, #0x58c
ffffffff80007178:	f900b801 	str	x1, [x0, #368]
ffffffff8000717c:	f9403be0 	ldr	x0, [sp, #112]
ffffffff80007180:	b0ffffe1 	adrp	x1, ffffffff80004000 <unicode_to_cp437+0x360>
ffffffff80007184:	91375021 	add	x1, x1, #0xdd4
ffffffff80007188:	f900bc01 	str	x1, [x0, #376]
ffffffff8000718c:	f9403be0 	ldr	x0, [sp, #112]
ffffffff80007190:	b0ffffe1 	adrp	x1, ffffffff80004000 <unicode_to_cp437+0x360>
ffffffff80007194:	91347021 	add	x1, x1, #0xd1c
ffffffff80007198:	f900c001 	str	x1, [x0, #384]
ffffffff8000719c:	f9403be0 	ldr	x0, [sp, #112]
ffffffff800071a0:	b0ffffe1 	adrp	x1, ffffffff80004000 <unicode_to_cp437+0x360>
ffffffff800071a4:	9135e021 	add	x1, x1, #0xd78
ffffffff800071a8:	f900c401 	str	x1, [x0, #392]
ffffffff800071ac:	f9403be0 	ldr	x0, [sp, #112]
ffffffff800071b0:	d0ffffe1 	adrp	x1, ffffffff80005000 <plot_char+0x1e8>
ffffffff800071b4:	913db021 	add	x1, x1, #0xf6c
ffffffff800071b8:	f900c801 	str	x1, [x0, #400]
ffffffff800071bc:	f9403be0 	ldr	x0, [sp, #112]
ffffffff800071c0:	f0ffffe1 	adrp	x1, ffffffff80006000 <flanterm_fb_double_buffer_flush+0x94>
ffffffff800071c4:	910da021 	add	x1, x1, #0x368
ffffffff800071c8:	f900cc01 	str	x1, [x0, #408]
ffffffff800071cc:	f9403be0 	ldr	x0, [sp, #112]
ffffffff800071d0:	f0ffffe1 	adrp	x1, ffffffff80006000 <flanterm_fb_double_buffer_flush+0x94>
ffffffff800071d4:	9113a021 	add	x1, x1, #0x4e8
ffffffff800071d8:	f900d001 	str	x1, [x0, #416]
ffffffff800071dc:	f9403be0 	ldr	x0, [sp, #112]
ffffffff800071e0:	97ffe770 	bl	ffffffff80000fa0 <flanterm_context_reinit>
ffffffff800071e4:	f9403be0 	ldr	x0, [sp, #112]
ffffffff800071e8:	97fffc60 	bl	ffffffff80006368 <flanterm_fb_full_refresh>
ffffffff800071ec:	f9403be0 	ldr	x0, [sp, #112]
ffffffff800071f0:	14000070 	b	ffffffff800073b0 <flanterm_fb_init+0xdc4>
ffffffff800071f4:	d503201f 	nop
ffffffff800071f8:	1400000e 	b	ffffffff80007230 <flanterm_fb_init+0xc44>
ffffffff800071fc:	d503201f 	nop
ffffffff80007200:	1400000c 	b	ffffffff80007230 <flanterm_fb_init+0xc44>
ffffffff80007204:	d503201f 	nop
ffffffff80007208:	1400000a 	b	ffffffff80007230 <flanterm_fb_init+0xc44>
ffffffff8000720c:	d503201f 	nop
ffffffff80007210:	14000008 	b	ffffffff80007230 <flanterm_fb_init+0xc44>
ffffffff80007214:	d503201f 	nop
ffffffff80007218:	14000006 	b	ffffffff80007230 <flanterm_fb_init+0xc44>
ffffffff8000721c:	d503201f 	nop
ffffffff80007220:	14000004 	b	ffffffff80007230 <flanterm_fb_init+0xc44>
ffffffff80007224:	d503201f 	nop
ffffffff80007228:	14000002 	b	ffffffff80007230 <flanterm_fb_init+0xc44>
ffffffff8000722c:	d503201f 	nop
ffffffff80007230:	f94027e1 	ldr	x1, [sp, #72]
ffffffff80007234:	b0ffffe0 	adrp	x0, ffffffff80004000 <unicode_to_cp437+0x360>
ffffffff80007238:	9132b000 	add	x0, x0, #0xcac
ffffffff8000723c:	eb00003f 	cmp	x1, x0
ffffffff80007240:	540000e1 	b.ne	ffffffff8000725c <flanterm_fb_init+0xc70>  // b.any
ffffffff80007244:	f0020100 	adrp	x0, ffffffff8402a000 <bump_alloc_pool+0x3fff898>
ffffffff80007248:	911da000 	add	x0, x0, #0x768
ffffffff8000724c:	f94043e1 	ldr	x1, [sp, #128]
ffffffff80007250:	f9000001 	str	x1, [x0]
ffffffff80007254:	d2800000 	mov	x0, #0x0                   	// #0
ffffffff80007258:	14000056 	b	ffffffff800073b0 <flanterm_fb_init+0xdc4>
ffffffff8000725c:	f94023e0 	ldr	x0, [sp, #64]
ffffffff80007260:	f100001f 	cmp	x0, #0x0
ffffffff80007264:	54000061 	b.ne	ffffffff80007270 <flanterm_fb_init+0xc84>  // b.any
ffffffff80007268:	d2800000 	mov	x0, #0x0                   	// #0
ffffffff8000726c:	14000051 	b	ffffffff800073b0 <flanterm_fb_init+0xdc4>
ffffffff80007270:	f9403fe0 	ldr	x0, [sp, #120]
ffffffff80007274:	f9414800 	ldr	x0, [x0, #656]
ffffffff80007278:	f100001f 	cmp	x0, #0x0
ffffffff8000727c:	54000120 	b.eq	ffffffff800072a0 <flanterm_fb_init+0xcb4>  // b.none
ffffffff80007280:	f9403fe0 	ldr	x0, [sp, #120]
ffffffff80007284:	f9414803 	ldr	x3, [x0, #656]
ffffffff80007288:	f9403fe0 	ldr	x0, [sp, #120]
ffffffff8000728c:	f9414400 	ldr	x0, [x0, #648]
ffffffff80007290:	f94023e2 	ldr	x2, [sp, #64]
ffffffff80007294:	aa0003e1 	mov	x1, x0
ffffffff80007298:	aa0303e0 	mov	x0, x3
ffffffff8000729c:	d63f0040 	blr	x2
ffffffff800072a0:	f9403fe0 	ldr	x0, [sp, #120]
ffffffff800072a4:	f9416400 	ldr	x0, [x0, #712]
ffffffff800072a8:	f100001f 	cmp	x0, #0x0
ffffffff800072ac:	54000120 	b.eq	ffffffff800072d0 <flanterm_fb_init+0xce4>  // b.none
ffffffff800072b0:	f9403fe0 	ldr	x0, [sp, #120]
ffffffff800072b4:	f9416403 	ldr	x3, [x0, #712]
ffffffff800072b8:	f9403fe0 	ldr	x0, [sp, #120]
ffffffff800072bc:	f9415400 	ldr	x0, [x0, #680]
ffffffff800072c0:	f94023e2 	ldr	x2, [sp, #64]
ffffffff800072c4:	aa0003e1 	mov	x1, x0
ffffffff800072c8:	aa0303e0 	mov	x0, x3
ffffffff800072cc:	d63f0040 	blr	x2
ffffffff800072d0:	f9403fe0 	ldr	x0, [sp, #120]
ffffffff800072d4:	f9415c00 	ldr	x0, [x0, #696]
ffffffff800072d8:	f100001f 	cmp	x0, #0x0
ffffffff800072dc:	54000120 	b.eq	ffffffff80007300 <flanterm_fb_init+0xd14>  // b.none
ffffffff800072e0:	f9403fe0 	ldr	x0, [sp, #120]
ffffffff800072e4:	f9415c03 	ldr	x3, [x0, #696]
ffffffff800072e8:	f9403fe0 	ldr	x0, [sp, #120]
ffffffff800072ec:	f9415000 	ldr	x0, [x0, #672]
ffffffff800072f0:	f94023e2 	ldr	x2, [sp, #64]
ffffffff800072f4:	aa0003e1 	mov	x1, x0
ffffffff800072f8:	aa0303e0 	mov	x0, x3
ffffffff800072fc:	d63f0040 	blr	x2
ffffffff80007300:	f9403fe0 	ldr	x0, [sp, #120]
ffffffff80007304:	f9415800 	ldr	x0, [x0, #688]
ffffffff80007308:	f100001f 	cmp	x0, #0x0
ffffffff8000730c:	54000120 	b.eq	ffffffff80007330 <flanterm_fb_init+0xd44>  // b.none
ffffffff80007310:	f9403fe0 	ldr	x0, [sp, #120]
ffffffff80007314:	f9415803 	ldr	x3, [x0, #688]
ffffffff80007318:	f9403fe0 	ldr	x0, [sp, #120]
ffffffff8000731c:	f9414c00 	ldr	x0, [x0, #664]
ffffffff80007320:	f94023e2 	ldr	x2, [sp, #64]
ffffffff80007324:	aa0003e1 	mov	x1, x0
ffffffff80007328:	aa0303e0 	mov	x0, x3
ffffffff8000732c:	d63f0040 	blr	x2
ffffffff80007330:	f9403fe0 	ldr	x0, [sp, #120]
ffffffff80007334:	f9411800 	ldr	x0, [x0, #560]
ffffffff80007338:	f100001f 	cmp	x0, #0x0
ffffffff8000733c:	54000120 	b.eq	ffffffff80007360 <flanterm_fb_init+0xd74>  // b.none
ffffffff80007340:	f9403fe0 	ldr	x0, [sp, #120]
ffffffff80007344:	f9411803 	ldr	x3, [x0, #560]
ffffffff80007348:	f9403fe0 	ldr	x0, [sp, #120]
ffffffff8000734c:	f9411400 	ldr	x0, [x0, #552]
ffffffff80007350:	f94023e2 	ldr	x2, [sp, #64]
ffffffff80007354:	aa0003e1 	mov	x1, x0
ffffffff80007358:	aa0303e0 	mov	x0, x3
ffffffff8000735c:	d63f0040 	blr	x2
ffffffff80007360:	f9403fe0 	ldr	x0, [sp, #120]
ffffffff80007364:	f9411000 	ldr	x0, [x0, #544]
ffffffff80007368:	f100001f 	cmp	x0, #0x0
ffffffff8000736c:	54000120 	b.eq	ffffffff80007390 <flanterm_fb_init+0xda4>  // b.none
ffffffff80007370:	f9403fe0 	ldr	x0, [sp, #120]
ffffffff80007374:	f9411003 	ldr	x3, [x0, #544]
ffffffff80007378:	f9403fe0 	ldr	x0, [sp, #120]
ffffffff8000737c:	f9410c00 	ldr	x0, [x0, #536]
ffffffff80007380:	f94023e2 	ldr	x2, [sp, #64]
ffffffff80007384:	aa0003e1 	mov	x1, x0
ffffffff80007388:	aa0303e0 	mov	x0, x3
ffffffff8000738c:	d63f0040 	blr	x2
ffffffff80007390:	f9403fe0 	ldr	x0, [sp, #120]
ffffffff80007394:	f100001f 	cmp	x0, #0x0
ffffffff80007398:	540000a0 	b.eq	ffffffff800073ac <flanterm_fb_init+0xdc0>  // b.none
ffffffff8000739c:	f94023e2 	ldr	x2, [sp, #64]
ffffffff800073a0:	d2806201 	mov	x1, #0x310                 	// #784
ffffffff800073a4:	f9403fe0 	ldr	x0, [sp, #120]
ffffffff800073a8:	d63f0040 	blr	x2
ffffffff800073ac:	d2800000 	mov	x0, #0x0                   	// #0
ffffffff800073b0:	a8cd7bfd 	ldp	x29, x30, [sp], #208
ffffffff800073b4:	d65f03c0 	ret
	...

ffffffff80007800 <_exception_vector>:
ffffffff80007800:	14000000 	b	ffffffff80007800 <_exception_vector>
ffffffff80007804:	d503201f 	nop
ffffffff80007808:	d503201f 	nop
ffffffff8000780c:	d503201f 	nop
ffffffff80007810:	d503201f 	nop
ffffffff80007814:	d503201f 	nop
ffffffff80007818:	d503201f 	nop
ffffffff8000781c:	d503201f 	nop
ffffffff80007820:	d503201f 	nop
ffffffff80007824:	d503201f 	nop
ffffffff80007828:	d503201f 	nop
ffffffff8000782c:	d503201f 	nop
ffffffff80007830:	d503201f 	nop
ffffffff80007834:	d503201f 	nop
ffffffff80007838:	d503201f 	nop
ffffffff8000783c:	d503201f 	nop
ffffffff80007840:	d503201f 	nop
ffffffff80007844:	d503201f 	nop
ffffffff80007848:	d503201f 	nop
ffffffff8000784c:	d503201f 	nop
ffffffff80007850:	d503201f 	nop
ffffffff80007854:	d503201f 	nop
ffffffff80007858:	d503201f 	nop
ffffffff8000785c:	d503201f 	nop
ffffffff80007860:	d503201f 	nop
ffffffff80007864:	d503201f 	nop
ffffffff80007868:	d503201f 	nop
ffffffff8000786c:	d503201f 	nop
ffffffff80007870:	d503201f 	nop
ffffffff80007874:	d503201f 	nop
ffffffff80007878:	d503201f 	nop
ffffffff8000787c:	d503201f 	nop

ffffffff80007880 <_exc_sp0_irq>:
ffffffff80007880:	14000000 	b	ffffffff80007880 <_exc_sp0_irq>
ffffffff80007884:	d503201f 	nop
ffffffff80007888:	d503201f 	nop
ffffffff8000788c:	d503201f 	nop
ffffffff80007890:	d503201f 	nop
ffffffff80007894:	d503201f 	nop
ffffffff80007898:	d503201f 	nop
ffffffff8000789c:	d503201f 	nop
ffffffff800078a0:	d503201f 	nop
ffffffff800078a4:	d503201f 	nop
ffffffff800078a8:	d503201f 	nop
ffffffff800078ac:	d503201f 	nop
ffffffff800078b0:	d503201f 	nop
ffffffff800078b4:	d503201f 	nop
ffffffff800078b8:	d503201f 	nop
ffffffff800078bc:	d503201f 	nop
ffffffff800078c0:	d503201f 	nop
ffffffff800078c4:	d503201f 	nop
ffffffff800078c8:	d503201f 	nop
ffffffff800078cc:	d503201f 	nop
ffffffff800078d0:	d503201f 	nop
ffffffff800078d4:	d503201f 	nop
ffffffff800078d8:	d503201f 	nop
ffffffff800078dc:	d503201f 	nop
ffffffff800078e0:	d503201f 	nop
ffffffff800078e4:	d503201f 	nop
ffffffff800078e8:	d503201f 	nop
ffffffff800078ec:	d503201f 	nop
ffffffff800078f0:	d503201f 	nop
ffffffff800078f4:	d503201f 	nop
ffffffff800078f8:	d503201f 	nop
ffffffff800078fc:	d503201f 	nop

ffffffff80007900 <_exc_sp0_fiq>:
ffffffff80007900:	14000000 	b	ffffffff80007900 <_exc_sp0_fiq>
ffffffff80007904:	d503201f 	nop
ffffffff80007908:	d503201f 	nop
ffffffff8000790c:	d503201f 	nop
ffffffff80007910:	d503201f 	nop
ffffffff80007914:	d503201f 	nop
ffffffff80007918:	d503201f 	nop
ffffffff8000791c:	d503201f 	nop
ffffffff80007920:	d503201f 	nop
ffffffff80007924:	d503201f 	nop
ffffffff80007928:	d503201f 	nop
ffffffff8000792c:	d503201f 	nop
ffffffff80007930:	d503201f 	nop
ffffffff80007934:	d503201f 	nop
ffffffff80007938:	d503201f 	nop
ffffffff8000793c:	d503201f 	nop
ffffffff80007940:	d503201f 	nop
ffffffff80007944:	d503201f 	nop
ffffffff80007948:	d503201f 	nop
ffffffff8000794c:	d503201f 	nop
ffffffff80007950:	d503201f 	nop
ffffffff80007954:	d503201f 	nop
ffffffff80007958:	d503201f 	nop
ffffffff8000795c:	d503201f 	nop
ffffffff80007960:	d503201f 	nop
ffffffff80007964:	d503201f 	nop
ffffffff80007968:	d503201f 	nop
ffffffff8000796c:	d503201f 	nop
ffffffff80007970:	d503201f 	nop
ffffffff80007974:	d503201f 	nop
ffffffff80007978:	d503201f 	nop
ffffffff8000797c:	d503201f 	nop

ffffffff80007980 <_exc_sp0_serror>:
ffffffff80007980:	14000000 	b	ffffffff80007980 <_exc_sp0_serror>
ffffffff80007984:	d503201f 	nop
ffffffff80007988:	d503201f 	nop
ffffffff8000798c:	d503201f 	nop
ffffffff80007990:	d503201f 	nop
ffffffff80007994:	d503201f 	nop
ffffffff80007998:	d503201f 	nop
ffffffff8000799c:	d503201f 	nop
ffffffff800079a0:	d503201f 	nop
ffffffff800079a4:	d503201f 	nop
ffffffff800079a8:	d503201f 	nop
ffffffff800079ac:	d503201f 	nop
ffffffff800079b0:	d503201f 	nop
ffffffff800079b4:	d503201f 	nop
ffffffff800079b8:	d503201f 	nop
ffffffff800079bc:	d503201f 	nop
ffffffff800079c0:	d503201f 	nop
ffffffff800079c4:	d503201f 	nop
ffffffff800079c8:	d503201f 	nop
ffffffff800079cc:	d503201f 	nop
ffffffff800079d0:	d503201f 	nop
ffffffff800079d4:	d503201f 	nop
ffffffff800079d8:	d503201f 	nop
ffffffff800079dc:	d503201f 	nop
ffffffff800079e0:	d503201f 	nop
ffffffff800079e4:	d503201f 	nop
ffffffff800079e8:	d503201f 	nop
ffffffff800079ec:	d503201f 	nop
ffffffff800079f0:	d503201f 	nop
ffffffff800079f4:	d503201f 	nop
ffffffff800079f8:	d503201f 	nop
ffffffff800079fc:	d503201f 	nop

ffffffff80007a00 <_exc_spx_sync>:
ffffffff80007a00:	17ffe502 	b	ffffffff80000e08 <kfault>
ffffffff80007a04:	d503201f 	nop
ffffffff80007a08:	d503201f 	nop
ffffffff80007a0c:	d503201f 	nop
ffffffff80007a10:	d503201f 	nop
ffffffff80007a14:	d503201f 	nop
ffffffff80007a18:	d503201f 	nop
ffffffff80007a1c:	d503201f 	nop
ffffffff80007a20:	d503201f 	nop
ffffffff80007a24:	d503201f 	nop
ffffffff80007a28:	d503201f 	nop
ffffffff80007a2c:	d503201f 	nop
ffffffff80007a30:	d503201f 	nop
ffffffff80007a34:	d503201f 	nop
ffffffff80007a38:	d503201f 	nop
ffffffff80007a3c:	d503201f 	nop
ffffffff80007a40:	d503201f 	nop
ffffffff80007a44:	d503201f 	nop
ffffffff80007a48:	d503201f 	nop
ffffffff80007a4c:	d503201f 	nop
ffffffff80007a50:	d503201f 	nop
ffffffff80007a54:	d503201f 	nop
ffffffff80007a58:	d503201f 	nop
ffffffff80007a5c:	d503201f 	nop
ffffffff80007a60:	d503201f 	nop
ffffffff80007a64:	d503201f 	nop
ffffffff80007a68:	d503201f 	nop
ffffffff80007a6c:	d503201f 	nop
ffffffff80007a70:	d503201f 	nop
ffffffff80007a74:	d503201f 	nop
ffffffff80007a78:	d503201f 	nop
ffffffff80007a7c:	d503201f 	nop

ffffffff80007a80 <_exc_spx_irq>:
ffffffff80007a80:	14000000 	b	ffffffff80007a80 <_exc_spx_irq>
ffffffff80007a84:	d503201f 	nop
ffffffff80007a88:	d503201f 	nop
ffffffff80007a8c:	d503201f 	nop
ffffffff80007a90:	d503201f 	nop
ffffffff80007a94:	d503201f 	nop
ffffffff80007a98:	d503201f 	nop
ffffffff80007a9c:	d503201f 	nop
ffffffff80007aa0:	d503201f 	nop
ffffffff80007aa4:	d503201f 	nop
ffffffff80007aa8:	d503201f 	nop
ffffffff80007aac:	d503201f 	nop
ffffffff80007ab0:	d503201f 	nop
ffffffff80007ab4:	d503201f 	nop
ffffffff80007ab8:	d503201f 	nop
ffffffff80007abc:	d503201f 	nop
ffffffff80007ac0:	d503201f 	nop
ffffffff80007ac4:	d503201f 	nop
ffffffff80007ac8:	d503201f 	nop
ffffffff80007acc:	d503201f 	nop
ffffffff80007ad0:	d503201f 	nop
ffffffff80007ad4:	d503201f 	nop
ffffffff80007ad8:	d503201f 	nop
ffffffff80007adc:	d503201f 	nop
ffffffff80007ae0:	d503201f 	nop
ffffffff80007ae4:	d503201f 	nop
ffffffff80007ae8:	d503201f 	nop
ffffffff80007aec:	d503201f 	nop
ffffffff80007af0:	d503201f 	nop
ffffffff80007af4:	d503201f 	nop
ffffffff80007af8:	d503201f 	nop
ffffffff80007afc:	d503201f 	nop

ffffffff80007b00 <_exc_spx_fiq>:
ffffffff80007b00:	14000000 	b	ffffffff80007b00 <_exc_spx_fiq>
ffffffff80007b04:	d503201f 	nop
ffffffff80007b08:	d503201f 	nop
ffffffff80007b0c:	d503201f 	nop
ffffffff80007b10:	d503201f 	nop
ffffffff80007b14:	d503201f 	nop
ffffffff80007b18:	d503201f 	nop
ffffffff80007b1c:	d503201f 	nop
ffffffff80007b20:	d503201f 	nop
ffffffff80007b24:	d503201f 	nop
ffffffff80007b28:	d503201f 	nop
ffffffff80007b2c:	d503201f 	nop
ffffffff80007b30:	d503201f 	nop
ffffffff80007b34:	d503201f 	nop
ffffffff80007b38:	d503201f 	nop
ffffffff80007b3c:	d503201f 	nop
ffffffff80007b40:	d503201f 	nop
ffffffff80007b44:	d503201f 	nop
ffffffff80007b48:	d503201f 	nop
ffffffff80007b4c:	d503201f 	nop
ffffffff80007b50:	d503201f 	nop
ffffffff80007b54:	d503201f 	nop
ffffffff80007b58:	d503201f 	nop
ffffffff80007b5c:	d503201f 	nop
ffffffff80007b60:	d503201f 	nop
ffffffff80007b64:	d503201f 	nop
ffffffff80007b68:	d503201f 	nop
ffffffff80007b6c:	d503201f 	nop
ffffffff80007b70:	d503201f 	nop
ffffffff80007b74:	d503201f 	nop
ffffffff80007b78:	d503201f 	nop
ffffffff80007b7c:	d503201f 	nop

ffffffff80007b80 <_exc_spx_serror>:
ffffffff80007b80:	14000000 	b	ffffffff80007b80 <_exc_spx_serror>
ffffffff80007b84:	d503201f 	nop
ffffffff80007b88:	d503201f 	nop
ffffffff80007b8c:	d503201f 	nop
ffffffff80007b90:	d503201f 	nop
ffffffff80007b94:	d503201f 	nop
ffffffff80007b98:	d503201f 	nop
ffffffff80007b9c:	d503201f 	nop
ffffffff80007ba0:	d503201f 	nop
ffffffff80007ba4:	d503201f 	nop
ffffffff80007ba8:	d503201f 	nop
ffffffff80007bac:	d503201f 	nop
ffffffff80007bb0:	d503201f 	nop
ffffffff80007bb4:	d503201f 	nop
ffffffff80007bb8:	d503201f 	nop
ffffffff80007bbc:	d503201f 	nop
ffffffff80007bc0:	d503201f 	nop
ffffffff80007bc4:	d503201f 	nop
ffffffff80007bc8:	d503201f 	nop
ffffffff80007bcc:	d503201f 	nop
ffffffff80007bd0:	d503201f 	nop
ffffffff80007bd4:	d503201f 	nop
ffffffff80007bd8:	d503201f 	nop
ffffffff80007bdc:	d503201f 	nop
ffffffff80007be0:	d503201f 	nop
ffffffff80007be4:	d503201f 	nop
ffffffff80007be8:	d503201f 	nop
ffffffff80007bec:	d503201f 	nop
ffffffff80007bf0:	d503201f 	nop
ffffffff80007bf4:	d503201f 	nop
ffffffff80007bf8:	d503201f 	nop
ffffffff80007bfc:	d503201f 	nop

ffffffff80007c00 <_exc_lower_sync>:
ffffffff80007c00:	14000000 	b	ffffffff80007c00 <_exc_lower_sync>
ffffffff80007c04:	d503201f 	nop
ffffffff80007c08:	d503201f 	nop
ffffffff80007c0c:	d503201f 	nop
ffffffff80007c10:	d503201f 	nop
ffffffff80007c14:	d503201f 	nop
ffffffff80007c18:	d503201f 	nop
ffffffff80007c1c:	d503201f 	nop
ffffffff80007c20:	d503201f 	nop
ffffffff80007c24:	d503201f 	nop
ffffffff80007c28:	d503201f 	nop
ffffffff80007c2c:	d503201f 	nop
ffffffff80007c30:	d503201f 	nop
ffffffff80007c34:	d503201f 	nop
ffffffff80007c38:	d503201f 	nop
ffffffff80007c3c:	d503201f 	nop
ffffffff80007c40:	d503201f 	nop
ffffffff80007c44:	d503201f 	nop
ffffffff80007c48:	d503201f 	nop
ffffffff80007c4c:	d503201f 	nop
ffffffff80007c50:	d503201f 	nop
ffffffff80007c54:	d503201f 	nop
ffffffff80007c58:	d503201f 	nop
ffffffff80007c5c:	d503201f 	nop
ffffffff80007c60:	d503201f 	nop
ffffffff80007c64:	d503201f 	nop
ffffffff80007c68:	d503201f 	nop
ffffffff80007c6c:	d503201f 	nop
ffffffff80007c70:	d503201f 	nop
ffffffff80007c74:	d503201f 	nop
ffffffff80007c78:	d503201f 	nop
ffffffff80007c7c:	d503201f 	nop

ffffffff80007c80 <_exc_lower_irq>:
ffffffff80007c80:	14000000 	b	ffffffff80007c80 <_exc_lower_irq>
ffffffff80007c84:	d503201f 	nop
ffffffff80007c88:	d503201f 	nop
ffffffff80007c8c:	d503201f 	nop
ffffffff80007c90:	d503201f 	nop
ffffffff80007c94:	d503201f 	nop
ffffffff80007c98:	d503201f 	nop
ffffffff80007c9c:	d503201f 	nop
ffffffff80007ca0:	d503201f 	nop
ffffffff80007ca4:	d503201f 	nop
ffffffff80007ca8:	d503201f 	nop
ffffffff80007cac:	d503201f 	nop
ffffffff80007cb0:	d503201f 	nop
ffffffff80007cb4:	d503201f 	nop
ffffffff80007cb8:	d503201f 	nop
ffffffff80007cbc:	d503201f 	nop
ffffffff80007cc0:	d503201f 	nop
ffffffff80007cc4:	d503201f 	nop
ffffffff80007cc8:	d503201f 	nop
ffffffff80007ccc:	d503201f 	nop
ffffffff80007cd0:	d503201f 	nop
ffffffff80007cd4:	d503201f 	nop
ffffffff80007cd8:	d503201f 	nop
ffffffff80007cdc:	d503201f 	nop
ffffffff80007ce0:	d503201f 	nop
ffffffff80007ce4:	d503201f 	nop
ffffffff80007ce8:	d503201f 	nop
ffffffff80007cec:	d503201f 	nop
ffffffff80007cf0:	d503201f 	nop
ffffffff80007cf4:	d503201f 	nop
ffffffff80007cf8:	d503201f 	nop
ffffffff80007cfc:	d503201f 	nop

ffffffff80007d00 <_exc_lower_fiq>:
ffffffff80007d00:	14000000 	b	ffffffff80007d00 <_exc_lower_fiq>
ffffffff80007d04:	d503201f 	nop
ffffffff80007d08:	d503201f 	nop
ffffffff80007d0c:	d503201f 	nop
ffffffff80007d10:	d503201f 	nop
ffffffff80007d14:	d503201f 	nop
ffffffff80007d18:	d503201f 	nop
ffffffff80007d1c:	d503201f 	nop
ffffffff80007d20:	d503201f 	nop
ffffffff80007d24:	d503201f 	nop
ffffffff80007d28:	d503201f 	nop
ffffffff80007d2c:	d503201f 	nop
ffffffff80007d30:	d503201f 	nop
ffffffff80007d34:	d503201f 	nop
ffffffff80007d38:	d503201f 	nop
ffffffff80007d3c:	d503201f 	nop
ffffffff80007d40:	d503201f 	nop
ffffffff80007d44:	d503201f 	nop
ffffffff80007d48:	d503201f 	nop
ffffffff80007d4c:	d503201f 	nop
ffffffff80007d50:	d503201f 	nop
ffffffff80007d54:	d503201f 	nop
ffffffff80007d58:	d503201f 	nop
ffffffff80007d5c:	d503201f 	nop
ffffffff80007d60:	d503201f 	nop
ffffffff80007d64:	d503201f 	nop
ffffffff80007d68:	d503201f 	nop
ffffffff80007d6c:	d503201f 	nop
ffffffff80007d70:	d503201f 	nop
ffffffff80007d74:	d503201f 	nop
ffffffff80007d78:	d503201f 	nop
ffffffff80007d7c:	d503201f 	nop

ffffffff80007d80 <_exc_lower_serror>:
ffffffff80007d80:	14000000 	b	ffffffff80007d80 <_exc_lower_serror>
ffffffff80007d84:	d503201f 	nop
ffffffff80007d88:	d503201f 	nop
ffffffff80007d8c:	d503201f 	nop
ffffffff80007d90:	d503201f 	nop
ffffffff80007d94:	d503201f 	nop
ffffffff80007d98:	d503201f 	nop
ffffffff80007d9c:	d503201f 	nop
ffffffff80007da0:	d503201f 	nop
ffffffff80007da4:	d503201f 	nop
ffffffff80007da8:	d503201f 	nop
ffffffff80007dac:	d503201f 	nop
ffffffff80007db0:	d503201f 	nop
ffffffff80007db4:	d503201f 	nop
ffffffff80007db8:	d503201f 	nop
ffffffff80007dbc:	d503201f 	nop
ffffffff80007dc0:	d503201f 	nop
ffffffff80007dc4:	d503201f 	nop
ffffffff80007dc8:	d503201f 	nop
ffffffff80007dcc:	d503201f 	nop
ffffffff80007dd0:	d503201f 	nop
ffffffff80007dd4:	d503201f 	nop
ffffffff80007dd8:	d503201f 	nop
ffffffff80007ddc:	d503201f 	nop
ffffffff80007de0:	d503201f 	nop
ffffffff80007de4:	d503201f 	nop
ffffffff80007de8:	d503201f 	nop
ffffffff80007dec:	d503201f 	nop
ffffffff80007df0:	d503201f 	nop
ffffffff80007df4:	d503201f 	nop
ffffffff80007df8:	d503201f 	nop
ffffffff80007dfc:	d503201f 	nop

ffffffff80007e00 <_exc_lower_32_sync>:
ffffffff80007e00:	14000000 	b	ffffffff80007e00 <_exc_lower_32_sync>
ffffffff80007e04:	d503201f 	nop
ffffffff80007e08:	d503201f 	nop
ffffffff80007e0c:	d503201f 	nop
ffffffff80007e10:	d503201f 	nop
ffffffff80007e14:	d503201f 	nop
ffffffff80007e18:	d503201f 	nop
ffffffff80007e1c:	d503201f 	nop
ffffffff80007e20:	d503201f 	nop
ffffffff80007e24:	d503201f 	nop
ffffffff80007e28:	d503201f 	nop
ffffffff80007e2c:	d503201f 	nop
ffffffff80007e30:	d503201f 	nop
ffffffff80007e34:	d503201f 	nop
ffffffff80007e38:	d503201f 	nop
ffffffff80007e3c:	d503201f 	nop
ffffffff80007e40:	d503201f 	nop
ffffffff80007e44:	d503201f 	nop
ffffffff80007e48:	d503201f 	nop
ffffffff80007e4c:	d503201f 	nop
ffffffff80007e50:	d503201f 	nop
ffffffff80007e54:	d503201f 	nop
ffffffff80007e58:	d503201f 	nop
ffffffff80007e5c:	d503201f 	nop
ffffffff80007e60:	d503201f 	nop
ffffffff80007e64:	d503201f 	nop
ffffffff80007e68:	d503201f 	nop
ffffffff80007e6c:	d503201f 	nop
ffffffff80007e70:	d503201f 	nop
ffffffff80007e74:	d503201f 	nop
ffffffff80007e78:	d503201f 	nop
ffffffff80007e7c:	d503201f 	nop

ffffffff80007e80 <_exc_lower_32_irq>:
ffffffff80007e80:	14000000 	b	ffffffff80007e80 <_exc_lower_32_irq>
ffffffff80007e84:	d503201f 	nop
ffffffff80007e88:	d503201f 	nop
ffffffff80007e8c:	d503201f 	nop
ffffffff80007e90:	d503201f 	nop
ffffffff80007e94:	d503201f 	nop
ffffffff80007e98:	d503201f 	nop
ffffffff80007e9c:	d503201f 	nop
ffffffff80007ea0:	d503201f 	nop
ffffffff80007ea4:	d503201f 	nop
ffffffff80007ea8:	d503201f 	nop
ffffffff80007eac:	d503201f 	nop
ffffffff80007eb0:	d503201f 	nop
ffffffff80007eb4:	d503201f 	nop
ffffffff80007eb8:	d503201f 	nop
ffffffff80007ebc:	d503201f 	nop
ffffffff80007ec0:	d503201f 	nop
ffffffff80007ec4:	d503201f 	nop
ffffffff80007ec8:	d503201f 	nop
ffffffff80007ecc:	d503201f 	nop
ffffffff80007ed0:	d503201f 	nop
ffffffff80007ed4:	d503201f 	nop
ffffffff80007ed8:	d503201f 	nop
ffffffff80007edc:	d503201f 	nop
ffffffff80007ee0:	d503201f 	nop
ffffffff80007ee4:	d503201f 	nop
ffffffff80007ee8:	d503201f 	nop
ffffffff80007eec:	d503201f 	nop
ffffffff80007ef0:	d503201f 	nop
ffffffff80007ef4:	d503201f 	nop
ffffffff80007ef8:	d503201f 	nop
ffffffff80007efc:	d503201f 	nop

ffffffff80007f00 <_exc_lower_32_fiq>:
ffffffff80007f00:	14000000 	b	ffffffff80007f00 <_exc_lower_32_fiq>
ffffffff80007f04:	d503201f 	nop
ffffffff80007f08:	d503201f 	nop
ffffffff80007f0c:	d503201f 	nop
ffffffff80007f10:	d503201f 	nop
ffffffff80007f14:	d503201f 	nop
ffffffff80007f18:	d503201f 	nop
ffffffff80007f1c:	d503201f 	nop
ffffffff80007f20:	d503201f 	nop
ffffffff80007f24:	d503201f 	nop
ffffffff80007f28:	d503201f 	nop
ffffffff80007f2c:	d503201f 	nop
ffffffff80007f30:	d503201f 	nop
ffffffff80007f34:	d503201f 	nop
ffffffff80007f38:	d503201f 	nop
ffffffff80007f3c:	d503201f 	nop
ffffffff80007f40:	d503201f 	nop
ffffffff80007f44:	d503201f 	nop
ffffffff80007f48:	d503201f 	nop
ffffffff80007f4c:	d503201f 	nop
ffffffff80007f50:	d503201f 	nop
ffffffff80007f54:	d503201f 	nop
ffffffff80007f58:	d503201f 	nop
ffffffff80007f5c:	d503201f 	nop
ffffffff80007f60:	d503201f 	nop
ffffffff80007f64:	d503201f 	nop
ffffffff80007f68:	d503201f 	nop
ffffffff80007f6c:	d503201f 	nop
ffffffff80007f70:	d503201f 	nop
ffffffff80007f74:	d503201f 	nop
ffffffff80007f78:	d503201f 	nop
ffffffff80007f7c:	d503201f 	nop

ffffffff80007f80 <_exc_lower_32_serror>:
ffffffff80007f80:	14000000 	b	ffffffff80007f80 <_exc_lower_32_serror>
